
hello.elf:     file format elf32-littleriscv


Disassembly of section .text:

00100000 <_start>:
  100000:	001000b7          	lui	x1,0x100
  100004:	00808067          	jalr	x0,8(x1) # 100008 <_abs_start>

00100008 <_abs_start>:
  100008:	30405073          	csrrwi	x0,mie,0
  10000c:	34405073          	csrrwi	x0,mip,0
  100010:	00000093          	addi	x1,x0,0
  100014:	00000113          	addi	x2,x0,0
  100018:	00000193          	addi	x3,x0,0
  10001c:	00000213          	addi	x4,x0,0
  100020:	00000293          	addi	x5,x0,0
  100024:	00000313          	addi	x6,x0,0
  100028:	00000393          	addi	x7,x0,0
  10002c:	00000413          	addi	x8,x0,0
  100030:	00000493          	addi	x9,x0,0
  100034:	00000513          	addi	x10,x0,0
  100038:	00000593          	addi	x11,x0,0
  10003c:	00000613          	addi	x12,x0,0
  100040:	00000693          	addi	x13,x0,0
  100044:	00000713          	addi	x14,x0,0
  100048:	00000793          	addi	x15,x0,0
  10004c:	00000813          	addi	x16,x0,0
  100050:	00000893          	addi	x17,x0,0
  100054:	00000913          	addi	x18,x0,0
  100058:	00000993          	addi	x19,x0,0
  10005c:	00000a13          	addi	x20,x0,0
  100060:	00000a93          	addi	x21,x0,0
  100064:	00000b13          	addi	x22,x0,0
  100068:	00000b93          	addi	x23,x0,0
  10006c:	00000c13          	addi	x24,x0,0
  100070:	00000c93          	addi	x25,x0,0
  100074:	00000d13          	addi	x26,x0,0
  100078:	00000d93          	addi	x27,x0,0
  10007c:	00000e13          	addi	x28,x0,0
  100080:	00000e93          	addi	x29,x0,0
  100084:	00000f13          	addi	x30,x0,0
  100088:	00000f93          	addi	x31,x0,0
  10008c:	00100197          	auipc	x3,0x100
  100090:	77418193          	addi	x3,x3,1908 # 200800 <__global_pointer$>
  100094:	f1402673          	csrrs	x12,mhartid,x0
  100098:	000002b7          	lui	x5,0x0
  10009c:	00028293          	addi	x5,x5,0 # 0 <_heap_size>
  1000a0:	00c2f463          	bgeu	x5,x12,1000a8 <_abs_start+0xa0>
  1000a4:	2710306f          	jal	x0,103b14 <abort>
  1000a8:	01f00117          	auipc	x2,0x1f00
  1000ac:	f5810113          	addi	x2,x2,-168 # 2000000 <_sstack>
  1000b0:	000012b7          	lui	x5,0x1
  1000b4:	80028293          	addi	x5,x5,-2048 # 800 <_hart_stack_size>
  1000b8:	00060c63          	beq	x12,x0,1000d0 <.L2^B1>
  1000bc:	00060313          	addi	x6,x12,0
  1000c0:	00028393          	addi	x7,x5,0

001000c4 <.L1^B1>:
  1000c4:	007282b3          	add	x5,x5,x7
  1000c8:	fff30313          	addi	x6,x6,-1
  1000cc:	fe031ce3          	bne	x6,x0,1000c4 <.L1^B1>

001000d0 <.L2^B1>:
  1000d0:	40510133          	sub	x2,x2,x5
  1000d4:	00010433          	add	x8,x2,x0
  1000d8:	0040006f          	jal	x0,1000dc <_start_rust>

001000dc <_start_rust>:
  1000dc:	ff010113          	addi	x2,x2,-16
  1000e0:	00112623          	sw	x1,12(x2)
  1000e4:	00004097          	auipc	x1,0x4
  1000e8:	9c4080e7          	jalr	x1,-1596(x1) # 103aa8 <default_mp_hook>
  1000ec:	04050e63          	beq	x10,x0,100148 <_start_rust+0x6c>
  1000f0:	00004097          	auipc	x1,0x4
  1000f4:	9b4080e7          	jalr	x1,-1612(x1) # 103aa4 <default_pre_init>
  1000f8:	00200537          	lui	x10,0x200
  1000fc:	00050513          	addi	x10,x10,0 # 200000 <_ebss>
  100100:	002005b7          	lui	x11,0x200
  100104:	00058593          	addi	x11,x11,0 # 200000 <_ebss>
  100108:	00a5f863          	bgeu	x11,x10,100118 <_start_rust+0x3c>
  10010c:	0005a023          	sw	x0,0(x11)
  100110:	00458593          	addi	x11,x11,4
  100114:	fea5ece3          	bltu	x11,x10,10010c <_start_rust+0x30>
  100118:	00200537          	lui	x10,0x200
  10011c:	00050513          	addi	x10,x10,0 # 200000 <_ebss>
  100120:	002005b7          	lui	x11,0x200
  100124:	00058593          	addi	x11,x11,0 # 200000 <_ebss>
  100128:	02a5f063          	bgeu	x11,x10,100148 <_start_rust+0x6c>
  10012c:	00105637          	lui	x12,0x105
  100130:	ad860613          	addi	x12,x12,-1320 # 104ad8 <_sidata>
  100134:	00062683          	lw	x13,0(x12)
  100138:	00d5a023          	sw	x13,0(x11)
  10013c:	00458593          	addi	x11,x11,4
  100140:	00460613          	addi	x12,x12,4
  100144:	fea5e8e3          	bltu	x11,x10,100134 <_start_rust+0x58>
  100148:	00004097          	auipc	x1,0x4
  10014c:	9bc080e7          	jalr	x1,-1604(x1) # 103b04 <_setup_interrupts>
  100150:	00000097          	auipc	x1,0x0
  100154:	150080e7          	jalr	x1,336(x1) # 1002a0 <main>
  100158:	c0001073          	unimp

0010015c <_start_trap>:
  10015c:	fc010113          	addi	x2,x2,-64
  100160:	00112023          	sw	x1,0(x2)
  100164:	00512223          	sw	x5,4(x2)
  100168:	00612423          	sw	x6,8(x2)
  10016c:	00712623          	sw	x7,12(x2)
  100170:	01c12823          	sw	x28,16(x2)
  100174:	01d12a23          	sw	x29,20(x2)
  100178:	01e12c23          	sw	x30,24(x2)
  10017c:	01f12e23          	sw	x31,28(x2)
  100180:	02a12023          	sw	x10,32(x2)
  100184:	02b12223          	sw	x11,36(x2)
  100188:	02c12423          	sw	x12,40(x2)
  10018c:	02d12623          	sw	x13,44(x2)
  100190:	02e12823          	sw	x14,48(x2)
  100194:	02f12a23          	sw	x15,52(x2)
  100198:	03012c23          	sw	x16,56(x2)
  10019c:	03112e23          	sw	x17,60(x2)
  1001a0:	00010533          	add	x10,x2,x0
  1001a4:	04c000ef          	jal	x1,1001f0 <_start_trap_rust>
  1001a8:	00012083          	lw	x1,0(x2)
  1001ac:	00412283          	lw	x5,4(x2)
  1001b0:	00812303          	lw	x6,8(x2)
  1001b4:	00c12383          	lw	x7,12(x2)
  1001b8:	01012e03          	lw	x28,16(x2)
  1001bc:	01412e83          	lw	x29,20(x2)
  1001c0:	01812f03          	lw	x30,24(x2)
  1001c4:	01c12f83          	lw	x31,28(x2)
  1001c8:	02012503          	lw	x10,32(x2)
  1001cc:	02412583          	lw	x11,36(x2)
  1001d0:	02812603          	lw	x12,40(x2)
  1001d4:	02c12683          	lw	x13,44(x2)
  1001d8:	03012703          	lw	x14,48(x2)
  1001dc:	03412783          	lw	x15,52(x2)
  1001e0:	03812803          	lw	x16,56(x2)
  1001e4:	03c12883          	lw	x17,60(x2)
  1001e8:	04010113          	addi	x2,x2,64
  1001ec:	30200073          	mret

001001f0 <_start_trap_rust>:
  1001f0:	ff010113          	addi	x2,x2,-16
  1001f4:	00112623          	sw	x1,12(x2)
  1001f8:	00812423          	sw	x8,8(x2)
  1001fc:	00050413          	addi	x8,x10,0
  100200:	00004097          	auipc	x1,0x4
  100204:	8fc080e7          	jalr	x1,-1796(x1) # 103afc <__read_mcause>
  100208:	fff00593          	addi	x11,x0,-1
  10020c:	00a12223          	sw	x10,4(x2)
  100210:	02a5d063          	bge	x11,x10,100230 <_start_trap_rust+0x40>
  100214:	00040513          	addi	x10,x8,0
  100218:	00004097          	auipc	x1,0x4
  10021c:	884080e7          	jalr	x1,-1916(x1) # 103a9c <DefaultExceptionHandler>
  100220:	00812403          	lw	x8,8(x2)
  100224:	00c12083          	lw	x1,12(x2)
  100228:	01010113          	addi	x2,x2,16
  10022c:	00008067          	jalr	x0,0(x1)
  100230:	00410513          	addi	x10,x2,4
  100234:	00004097          	auipc	x1,0x4
  100238:	8a4080e7          	jalr	x1,-1884(x1) # 103ad8 <_ZN5riscv8register6mcause6Mcause4code17he5f1739761dd4736E>
  10023c:	00c00593          	addi	x11,x0,12
  100240:	02b57863          	bgeu	x10,x11,100270 <_start_trap_rust+0x80>
  100244:	001055b7          	lui	x11,0x105
  100248:	aa858593          	addi	x11,x11,-1368 # 104aa8 <__INTERRUPTS>
  10024c:	00251513          	slli	x10,x10,0x2
  100250:	00b50533          	add	x10,x10,x11
  100254:	00052503          	lw	x10,0(x10)
  100258:	00050c63          	beq	x10,x0,100270 <_start_trap_rust+0x80>
  10025c:	000500e7          	jalr	x1,0(x10)
  100260:	00812403          	lw	x8,8(x2)
  100264:	00c12083          	lw	x1,12(x2)
  100268:	01010113          	addi	x2,x2,16
  10026c:	00008067          	jalr	x0,0(x1)
  100270:	00000097          	auipc	x1,0x0
  100274:	01c080e7          	jalr	x1,28(x1) # 10028c <DefaultHandler>
  100278:	00812403          	lw	x8,8(x2)
  10027c:	00c12083          	lw	x1,12(x2)
  100280:	01010113          	addi	x2,x2,16
  100284:	00008067          	jalr	x0,0(x1)

00100288 <_ZN4core3ptr13drop_in_place17h0cd46d2b672bf470E>:
  100288:	00008067          	jalr	x0,0(x1)

0010028c <DefaultHandler>:
  10028c:	00104537          	lui	x10,0x104
  100290:	b5450513          	addi	x10,x10,-1196 # 103b54 <.L__unnamed_1>
  100294:	01300593          	addi	x11,x0,19
  100298:	00000317          	auipc	x6,0x0
  10029c:	61830067          	jalr	x0,1560(x6) # 1008b0 <_ZN6mriscv5print17hfb106271725a4fc4E>

001002a0 <main>:
  1002a0:	fc010113          	addi	x2,x2,-64
  1002a4:	02112e23          	sw	x1,60(x2)
  1002a8:	02812c23          	sw	x8,56(x2)
  1002ac:	02912a23          	sw	x9,52(x2)
  1002b0:	00104537          	lui	x10,0x104
  1002b4:	b6750513          	addi	x10,x10,-1177 # 103b67 <.L__unnamed_2>
  1002b8:	01d00593          	addi	x11,x0,29
  1002bc:	00000097          	auipc	x1,0x0
  1002c0:	5f4080e7          	jalr	x1,1524(x1) # 1008b0 <_ZN6mriscv5print17hfb106271725a4fc4E>
  1002c4:	00011a23          	sh	x0,20(x2)
  1002c8:	00012823          	sw	x0,16(x2)
  1002cc:	00012623          	sw	x0,12(x2)
  1002d0:	00c10593          	addi	x11,x2,12
  1002d4:	00900513          	addi	x10,x0,9
  1002d8:	00a00613          	addi	x12,x0,10
  1002dc:	00000097          	auipc	x1,0x0
  1002e0:	438080e7          	jalr	x1,1080(x1) # 100714 <_ZN6mriscv4itoa17h151e1581b8f5f652E>
  1002e4:	00b00593          	addi	x11,x0,11
  1002e8:	00050693          	addi	x13,x10,0
  1002ec:	3cb57863          	bgeu	x10,x11,1006bc <main+0x41c>
  1002f0:	01810513          	addi	x10,x2,24
  1002f4:	00c10593          	addi	x11,x2,12
  1002f8:	00068613          	addi	x12,x13,0
  1002fc:	00002097          	auipc	x1,0x2
  100300:	1c4080e7          	jalr	x1,452(x1) # 1024c0 <_ZN4core3str8converts9from_utf817h68971a957e8b8b20E>
  100304:	01812503          	lw	x10,24(x2)
  100308:	00100593          	addi	x11,x0,1
  10030c:	3cb50663          	beq	x10,x11,1006d8 <main+0x438>
  100310:	01c12503          	lw	x10,28(x2)
  100314:	02012583          	lw	x11,32(x2)
  100318:	00000097          	auipc	x1,0x0
  10031c:	598080e7          	jalr	x1,1432(x1) # 1008b0 <_ZN6mriscv5print17hfb106271725a4fc4E>
  100320:	00104537          	lui	x10,0x104
  100324:	bb850513          	addi	x10,x10,-1096 # 103bb8 <.L__unnamed_3>
  100328:	00100593          	addi	x11,x0,1
  10032c:	00100413          	addi	x8,x0,1
  100330:	00000097          	auipc	x1,0x0
  100334:	580080e7          	jalr	x1,1408(x1) # 1008b0 <_ZN6mriscv5print17hfb106271725a4fc4E>
  100338:	00c10593          	addi	x11,x2,12
  10033c:	00800513          	addi	x10,x0,8
  100340:	00a00613          	addi	x12,x0,10
  100344:	00a00493          	addi	x9,x0,10
  100348:	00000097          	auipc	x1,0x0
  10034c:	3cc080e7          	jalr	x1,972(x1) # 100714 <_ZN6mriscv4itoa17h151e1581b8f5f652E>
  100350:	00050693          	addi	x13,x10,0
  100354:	36a4e463          	bltu	x9,x10,1006bc <main+0x41c>
  100358:	01810513          	addi	x10,x2,24
  10035c:	00c10593          	addi	x11,x2,12
  100360:	00068613          	addi	x12,x13,0
  100364:	00002097          	auipc	x1,0x2
  100368:	15c080e7          	jalr	x1,348(x1) # 1024c0 <_ZN4core3str8converts9from_utf817h68971a957e8b8b20E>
  10036c:	01812503          	lw	x10,24(x2)
  100370:	36850463          	beq	x10,x8,1006d8 <main+0x438>
  100374:	01c12503          	lw	x10,28(x2)
  100378:	02012583          	lw	x11,32(x2)
  10037c:	00000097          	auipc	x1,0x0
  100380:	534080e7          	jalr	x1,1332(x1) # 1008b0 <_ZN6mriscv5print17hfb106271725a4fc4E>
  100384:	00104537          	lui	x10,0x104
  100388:	bb850513          	addi	x10,x10,-1096 # 103bb8 <.L__unnamed_3>
  10038c:	00100593          	addi	x11,x0,1
  100390:	00100413          	addi	x8,x0,1
  100394:	00000097          	auipc	x1,0x0
  100398:	51c080e7          	jalr	x1,1308(x1) # 1008b0 <_ZN6mriscv5print17hfb106271725a4fc4E>
  10039c:	00c10593          	addi	x11,x2,12
  1003a0:	00700513          	addi	x10,x0,7
  1003a4:	00a00613          	addi	x12,x0,10
  1003a8:	00a00493          	addi	x9,x0,10
  1003ac:	00000097          	auipc	x1,0x0
  1003b0:	368080e7          	jalr	x1,872(x1) # 100714 <_ZN6mriscv4itoa17h151e1581b8f5f652E>
  1003b4:	00050693          	addi	x13,x10,0
  1003b8:	30a4e263          	bltu	x9,x10,1006bc <main+0x41c>
  1003bc:	01810513          	addi	x10,x2,24
  1003c0:	00c10593          	addi	x11,x2,12
  1003c4:	00068613          	addi	x12,x13,0
  1003c8:	00002097          	auipc	x1,0x2
  1003cc:	0f8080e7          	jalr	x1,248(x1) # 1024c0 <_ZN4core3str8converts9from_utf817h68971a957e8b8b20E>
  1003d0:	01812503          	lw	x10,24(x2)
  1003d4:	30850263          	beq	x10,x8,1006d8 <main+0x438>
  1003d8:	01c12503          	lw	x10,28(x2)
  1003dc:	02012583          	lw	x11,32(x2)
  1003e0:	00000097          	auipc	x1,0x0
  1003e4:	4d0080e7          	jalr	x1,1232(x1) # 1008b0 <_ZN6mriscv5print17hfb106271725a4fc4E>
  1003e8:	00104537          	lui	x10,0x104
  1003ec:	bb850513          	addi	x10,x10,-1096 # 103bb8 <.L__unnamed_3>
  1003f0:	00100593          	addi	x11,x0,1
  1003f4:	00100413          	addi	x8,x0,1
  1003f8:	00000097          	auipc	x1,0x0
  1003fc:	4b8080e7          	jalr	x1,1208(x1) # 1008b0 <_ZN6mriscv5print17hfb106271725a4fc4E>
  100400:	00c10593          	addi	x11,x2,12
  100404:	00600513          	addi	x10,x0,6
  100408:	00a00613          	addi	x12,x0,10
  10040c:	00a00493          	addi	x9,x0,10
  100410:	00000097          	auipc	x1,0x0
  100414:	304080e7          	jalr	x1,772(x1) # 100714 <_ZN6mriscv4itoa17h151e1581b8f5f652E>
  100418:	00050693          	addi	x13,x10,0
  10041c:	2aa4e063          	bltu	x9,x10,1006bc <main+0x41c>
  100420:	01810513          	addi	x10,x2,24
  100424:	00c10593          	addi	x11,x2,12
  100428:	00068613          	addi	x12,x13,0
  10042c:	00002097          	auipc	x1,0x2
  100430:	094080e7          	jalr	x1,148(x1) # 1024c0 <_ZN4core3str8converts9from_utf817h68971a957e8b8b20E>
  100434:	01812503          	lw	x10,24(x2)
  100438:	2a850063          	beq	x10,x8,1006d8 <main+0x438>
  10043c:	01c12503          	lw	x10,28(x2)
  100440:	02012583          	lw	x11,32(x2)
  100444:	00000097          	auipc	x1,0x0
  100448:	46c080e7          	jalr	x1,1132(x1) # 1008b0 <_ZN6mriscv5print17hfb106271725a4fc4E>
  10044c:	00104537          	lui	x10,0x104
  100450:	bb850513          	addi	x10,x10,-1096 # 103bb8 <.L__unnamed_3>
  100454:	00100593          	addi	x11,x0,1
  100458:	00100413          	addi	x8,x0,1
  10045c:	00000097          	auipc	x1,0x0
  100460:	454080e7          	jalr	x1,1108(x1) # 1008b0 <_ZN6mriscv5print17hfb106271725a4fc4E>
  100464:	00c10593          	addi	x11,x2,12
  100468:	00500513          	addi	x10,x0,5
  10046c:	00a00613          	addi	x12,x0,10
  100470:	00a00493          	addi	x9,x0,10
  100474:	00000097          	auipc	x1,0x0
  100478:	2a0080e7          	jalr	x1,672(x1) # 100714 <_ZN6mriscv4itoa17h151e1581b8f5f652E>
  10047c:	00050693          	addi	x13,x10,0
  100480:	22a4ee63          	bltu	x9,x10,1006bc <main+0x41c>
  100484:	01810513          	addi	x10,x2,24
  100488:	00c10593          	addi	x11,x2,12
  10048c:	00068613          	addi	x12,x13,0
  100490:	00002097          	auipc	x1,0x2
  100494:	030080e7          	jalr	x1,48(x1) # 1024c0 <_ZN4core3str8converts9from_utf817h68971a957e8b8b20E>
  100498:	01812503          	lw	x10,24(x2)
  10049c:	22850e63          	beq	x10,x8,1006d8 <main+0x438>
  1004a0:	01c12503          	lw	x10,28(x2)
  1004a4:	02012583          	lw	x11,32(x2)
  1004a8:	00000097          	auipc	x1,0x0
  1004ac:	408080e7          	jalr	x1,1032(x1) # 1008b0 <_ZN6mriscv5print17hfb106271725a4fc4E>
  1004b0:	00104537          	lui	x10,0x104
  1004b4:	bb850513          	addi	x10,x10,-1096 # 103bb8 <.L__unnamed_3>
  1004b8:	00100593          	addi	x11,x0,1
  1004bc:	00100413          	addi	x8,x0,1
  1004c0:	00000097          	auipc	x1,0x0
  1004c4:	3f0080e7          	jalr	x1,1008(x1) # 1008b0 <_ZN6mriscv5print17hfb106271725a4fc4E>
  1004c8:	00c10593          	addi	x11,x2,12
  1004cc:	00400513          	addi	x10,x0,4
  1004d0:	00a00613          	addi	x12,x0,10
  1004d4:	00a00493          	addi	x9,x0,10
  1004d8:	00000097          	auipc	x1,0x0
  1004dc:	23c080e7          	jalr	x1,572(x1) # 100714 <_ZN6mriscv4itoa17h151e1581b8f5f652E>
  1004e0:	00050693          	addi	x13,x10,0
  1004e4:	1ca4ec63          	bltu	x9,x10,1006bc <main+0x41c>
  1004e8:	01810513          	addi	x10,x2,24
  1004ec:	00c10593          	addi	x11,x2,12
  1004f0:	00068613          	addi	x12,x13,0
  1004f4:	00002097          	auipc	x1,0x2
  1004f8:	fcc080e7          	jalr	x1,-52(x1) # 1024c0 <_ZN4core3str8converts9from_utf817h68971a957e8b8b20E>
  1004fc:	01812503          	lw	x10,24(x2)
  100500:	1c850c63          	beq	x10,x8,1006d8 <main+0x438>
  100504:	01c12503          	lw	x10,28(x2)
  100508:	02012583          	lw	x11,32(x2)
  10050c:	00000097          	auipc	x1,0x0
  100510:	3a4080e7          	jalr	x1,932(x1) # 1008b0 <_ZN6mriscv5print17hfb106271725a4fc4E>
  100514:	00104537          	lui	x10,0x104
  100518:	bb850513          	addi	x10,x10,-1096 # 103bb8 <.L__unnamed_3>
  10051c:	00100593          	addi	x11,x0,1
  100520:	00100413          	addi	x8,x0,1
  100524:	00000097          	auipc	x1,0x0
  100528:	38c080e7          	jalr	x1,908(x1) # 1008b0 <_ZN6mriscv5print17hfb106271725a4fc4E>
  10052c:	00c10593          	addi	x11,x2,12
  100530:	00300513          	addi	x10,x0,3
  100534:	00a00613          	addi	x12,x0,10
  100538:	00a00493          	addi	x9,x0,10
  10053c:	00000097          	auipc	x1,0x0
  100540:	1d8080e7          	jalr	x1,472(x1) # 100714 <_ZN6mriscv4itoa17h151e1581b8f5f652E>
  100544:	00050693          	addi	x13,x10,0
  100548:	16a4ea63          	bltu	x9,x10,1006bc <main+0x41c>
  10054c:	01810513          	addi	x10,x2,24
  100550:	00c10593          	addi	x11,x2,12
  100554:	00068613          	addi	x12,x13,0
  100558:	00002097          	auipc	x1,0x2
  10055c:	f68080e7          	jalr	x1,-152(x1) # 1024c0 <_ZN4core3str8converts9from_utf817h68971a957e8b8b20E>
  100560:	01812503          	lw	x10,24(x2)
  100564:	16850a63          	beq	x10,x8,1006d8 <main+0x438>
  100568:	01c12503          	lw	x10,28(x2)
  10056c:	02012583          	lw	x11,32(x2)
  100570:	00000097          	auipc	x1,0x0
  100574:	340080e7          	jalr	x1,832(x1) # 1008b0 <_ZN6mriscv5print17hfb106271725a4fc4E>
  100578:	00104537          	lui	x10,0x104
  10057c:	bb850513          	addi	x10,x10,-1096 # 103bb8 <.L__unnamed_3>
  100580:	00100593          	addi	x11,x0,1
  100584:	00100413          	addi	x8,x0,1
  100588:	00000097          	auipc	x1,0x0
  10058c:	328080e7          	jalr	x1,808(x1) # 1008b0 <_ZN6mriscv5print17hfb106271725a4fc4E>
  100590:	00c10593          	addi	x11,x2,12
  100594:	00200513          	addi	x10,x0,2
  100598:	00a00613          	addi	x12,x0,10
  10059c:	00a00493          	addi	x9,x0,10
  1005a0:	00000097          	auipc	x1,0x0
  1005a4:	174080e7          	jalr	x1,372(x1) # 100714 <_ZN6mriscv4itoa17h151e1581b8f5f652E>
  1005a8:	00050693          	addi	x13,x10,0
  1005ac:	10a4e863          	bltu	x9,x10,1006bc <main+0x41c>
  1005b0:	01810513          	addi	x10,x2,24
  1005b4:	00c10593          	addi	x11,x2,12
  1005b8:	00068613          	addi	x12,x13,0
  1005bc:	00002097          	auipc	x1,0x2
  1005c0:	f04080e7          	jalr	x1,-252(x1) # 1024c0 <_ZN4core3str8converts9from_utf817h68971a957e8b8b20E>
  1005c4:	01812503          	lw	x10,24(x2)
  1005c8:	10850863          	beq	x10,x8,1006d8 <main+0x438>
  1005cc:	01c12503          	lw	x10,28(x2)
  1005d0:	02012583          	lw	x11,32(x2)
  1005d4:	00000097          	auipc	x1,0x0
  1005d8:	2dc080e7          	jalr	x1,732(x1) # 1008b0 <_ZN6mriscv5print17hfb106271725a4fc4E>
  1005dc:	00104537          	lui	x10,0x104
  1005e0:	bb850513          	addi	x10,x10,-1096 # 103bb8 <.L__unnamed_3>
  1005e4:	00100593          	addi	x11,x0,1
  1005e8:	00100413          	addi	x8,x0,1
  1005ec:	00000097          	auipc	x1,0x0
  1005f0:	2c4080e7          	jalr	x1,708(x1) # 1008b0 <_ZN6mriscv5print17hfb106271725a4fc4E>
  1005f4:	00c10593          	addi	x11,x2,12
  1005f8:	00100513          	addi	x10,x0,1
  1005fc:	00a00613          	addi	x12,x0,10
  100600:	00a00493          	addi	x9,x0,10
  100604:	00000097          	auipc	x1,0x0
  100608:	110080e7          	jalr	x1,272(x1) # 100714 <_ZN6mriscv4itoa17h151e1581b8f5f652E>
  10060c:	00050693          	addi	x13,x10,0
  100610:	0aa4e663          	bltu	x9,x10,1006bc <main+0x41c>
  100614:	01810513          	addi	x10,x2,24
  100618:	00c10593          	addi	x11,x2,12
  10061c:	00068613          	addi	x12,x13,0
  100620:	00002097          	auipc	x1,0x2
  100624:	ea0080e7          	jalr	x1,-352(x1) # 1024c0 <_ZN4core3str8converts9from_utf817h68971a957e8b8b20E>
  100628:	01812503          	lw	x10,24(x2)
  10062c:	0a850663          	beq	x10,x8,1006d8 <main+0x438>
  100630:	01c12503          	lw	x10,28(x2)
  100634:	02012583          	lw	x11,32(x2)
  100638:	00000097          	auipc	x1,0x0
  10063c:	278080e7          	jalr	x1,632(x1) # 1008b0 <_ZN6mriscv5print17hfb106271725a4fc4E>
  100640:	00104537          	lui	x10,0x104
  100644:	bb850513          	addi	x10,x10,-1096 # 103bb8 <.L__unnamed_3>
  100648:	00100593          	addi	x11,x0,1
  10064c:	00100413          	addi	x8,x0,1
  100650:	00000097          	auipc	x1,0x0
  100654:	260080e7          	jalr	x1,608(x1) # 1008b0 <_ZN6mriscv5print17hfb106271725a4fc4E>
  100658:	00c10593          	addi	x11,x2,12
  10065c:	00a00613          	addi	x12,x0,10
  100660:	00a00493          	addi	x9,x0,10
  100664:	00000513          	addi	x10,x0,0
  100668:	00000097          	auipc	x1,0x0
  10066c:	0ac080e7          	jalr	x1,172(x1) # 100714 <_ZN6mriscv4itoa17h151e1581b8f5f652E>
  100670:	00050693          	addi	x13,x10,0
  100674:	04a4e463          	bltu	x9,x10,1006bc <main+0x41c>
  100678:	01810513          	addi	x10,x2,24
  10067c:	00c10593          	addi	x11,x2,12
  100680:	00068613          	addi	x12,x13,0
  100684:	00002097          	auipc	x1,0x2
  100688:	e3c080e7          	jalr	x1,-452(x1) # 1024c0 <_ZN4core3str8converts9from_utf817h68971a957e8b8b20E>
  10068c:	01812503          	lw	x10,24(x2)
  100690:	04850463          	beq	x10,x8,1006d8 <main+0x438>
  100694:	01c12503          	lw	x10,28(x2)
  100698:	02012583          	lw	x11,32(x2)
  10069c:	00000097          	auipc	x1,0x0
  1006a0:	214080e7          	jalr	x1,532(x1) # 1008b0 <_ZN6mriscv5print17hfb106271725a4fc4E>
  1006a4:	00104537          	lui	x10,0x104
  1006a8:	bb850513          	addi	x10,x10,-1096 # 103bb8 <.L__unnamed_3>
  1006ac:	00100593          	addi	x11,x0,1
  1006b0:	00000097          	auipc	x1,0x0
  1006b4:	200080e7          	jalr	x1,512(x1) # 1008b0 <_ZN6mriscv5print17hfb106271725a4fc4E>
  1006b8:	0000006f          	jal	x0,1006b8 <main+0x418>
  1006bc:	00104537          	lui	x10,0x104
  1006c0:	b9850613          	addi	x12,x10,-1128 # 103b98 <.L__unnamed_4>
  1006c4:	00a00593          	addi	x11,x0,10
  1006c8:	00068513          	addi	x10,x13,0
  1006cc:	00002097          	auipc	x1,0x2
  1006d0:	d24080e7          	jalr	x1,-732(x1) # 1023f0 <_ZN4core5slice5index24slice_end_index_len_fail17ha1975a8c2a737844E>
  1006d4:	c0001073          	unimp
  1006d8:	02012503          	lw	x10,32(x2)
  1006dc:	01c12583          	lw	x11,28(x2)
  1006e0:	02a12623          	sw	x10,44(x2)
  1006e4:	02b12423          	sw	x11,40(x2)
  1006e8:	00104537          	lui	x10,0x104
  1006ec:	b1850513          	addi	x10,x10,-1256 # 103b18 <.L__unnamed_5>
  1006f0:	001045b7          	lui	x11,0x104
  1006f4:	b4458693          	addi	x13,x11,-1212 # 103b44 <.L__unnamed_6>
  1006f8:	001045b7          	lui	x11,0x104
  1006fc:	ba858713          	addi	x14,x11,-1112 # 103ba8 <.L__unnamed_7>
  100700:	02810613          	addi	x12,x2,40
  100704:	02b00593          	addi	x11,x0,43
  100708:	00000097          	auipc	x1,0x0
  10070c:	29c080e7          	jalr	x1,668(x1) # 1009a4 <_ZN4core6option18expect_none_failed17hff240b62f4f959bdE>
  100710:	c0001073          	unimp

00100714 <_ZN6mriscv4itoa17h151e1581b8f5f652E>:
  100714:	fe010113          	addi	x2,x2,-32
  100718:	00112e23          	sw	x1,28(x2)
  10071c:	00812c23          	sw	x8,24(x2)
  100720:	00912a23          	sw	x9,20(x2)
  100724:	01212823          	sw	x18,16(x2)
  100728:	01312623          	sw	x19,12(x2)
  10072c:	01412423          	sw	x20,8(x2)
  100730:	01512223          	sw	x21,4(x2)
  100734:	01612023          	sw	x22,0(x2)
  100738:	00060913          	addi	x18,x12,0
  10073c:	00058993          	addi	x19,x11,0
  100740:	00000a13          	addi	x20,x0,0
  100744:	01f55a93          	srli	x21,x10,0x1f
  100748:	41f55593          	srai	x11,x10,0x1f
  10074c:	00b50533          	add	x10,x10,x11
  100750:	00b544b3          	xor	x9,x10,x11
  100754:	01200b13          	addi	x22,x0,18
  100758:	0f490663          	beq	x18,x20,100844 <_ZN6mriscv4itoa17h151e1581b8f5f652E+0x130>
  10075c:	00a00593          	addi	x11,x0,10
  100760:	00048513          	addi	x10,x9,0
  100764:	00003097          	auipc	x1,0x3
  100768:	13c080e7          	jalr	x1,316(x1) # 1038a0 <__divsi3>
  10076c:	00050413          	addi	x8,x10,0
  100770:	00a00593          	addi	x11,x0,10
  100774:	00003097          	auipc	x1,0x3
  100778:	188080e7          	jalr	x1,392(x1) # 1038fc <__mulsi3>
  10077c:	40a48533          	sub	x10,x9,x10
  100780:	014985b3          	add	x11,x19,x20
  100784:	03050513          	addi	x10,x10,48
  100788:	00a58023          	sb	x10,0(x11)
  10078c:	00948513          	addi	x10,x9,9
  100790:	001a0a13          	addi	x20,x20,1
  100794:	00040493          	addi	x9,x8,0
  100798:	fcab60e3          	bltu	x22,x10,100758 <_ZN6mriscv4itoa17h151e1581b8f5f652E+0x44>
  10079c:	080a9263          	bne	x21,x0,100820 <_ZN6mriscv4itoa17h151e1581b8f5f652E+0x10c>
  1007a0:	00100513          	addi	x10,x0,1
  1007a4:	000a0593          	addi	x11,x20,0
  1007a8:	01456463          	bltu	x10,x20,1007b0 <_ZN6mriscv4itoa17h151e1581b8f5f652E+0x9c>
  1007ac:	00100593          	addi	x11,x0,1
  1007b0:	00000693          	addi	x13,x0,0
  1007b4:	fffa0513          	addi	x10,x20,-1
  1007b8:	fff00813          	addi	x16,x0,-1
  1007bc:	03050c63          	beq	x10,x16,1007f4 <_ZN6mriscv4itoa17h151e1581b8f5f652E+0xe0>
  1007c0:	02a6fa63          	bgeu	x13,x10,1007f4 <_ZN6mriscv4itoa17h151e1581b8f5f652E+0xe0>
  1007c4:	09257e63          	bgeu	x10,x18,100860 <_ZN6mriscv4itoa17h151e1581b8f5f652E+0x14c>
  1007c8:	0ad90863          	beq	x18,x13,100878 <_ZN6mriscv4itoa17h151e1581b8f5f652E+0x164>
  1007cc:	00a98733          	add	x14,x19,x10
  1007d0:	00d987b3          	add	x15,x19,x13
  1007d4:	00078483          	lb	x9,0(x15)
  1007d8:	00070403          	lb	x8,0(x14)
  1007dc:	00168613          	addi	x12,x13,1
  1007e0:	00970023          	sb	x9,0(x14)
  1007e4:	00878023          	sb	x8,0(x15)
  1007e8:	fff50513          	addi	x10,x10,-1
  1007ec:	00060693          	addi	x13,x12,0
  1007f0:	fcc596e3          	bne	x11,x12,1007bc <_ZN6mriscv4itoa17h151e1581b8f5f652E+0xa8>
  1007f4:	000a0513          	addi	x10,x20,0
  1007f8:	00012b03          	lw	x22,0(x2)
  1007fc:	00412a83          	lw	x21,4(x2)
  100800:	00812a03          	lw	x20,8(x2)
  100804:	00c12983          	lw	x19,12(x2)
  100808:	01012903          	lw	x18,16(x2)
  10080c:	01412483          	lw	x9,20(x2)
  100810:	01812403          	lw	x8,24(x2)
  100814:	01c12083          	lw	x1,28(x2)
  100818:	02010113          	addi	x2,x2,32
  10081c:	00008067          	jalr	x0,0(x1)
  100820:	072a7a63          	bgeu	x20,x18,100894 <_ZN6mriscv4itoa17h151e1581b8f5f652E+0x180>
  100824:	01498533          	add	x10,x19,x20
  100828:	02d00593          	addi	x11,x0,45
  10082c:	00b50023          	sb	x11,0(x10)
  100830:	001a0a13          	addi	x20,x20,1
  100834:	00100513          	addi	x10,x0,1
  100838:	000a0593          	addi	x11,x20,0
  10083c:	f74578e3          	bgeu	x10,x20,1007ac <_ZN6mriscv4itoa17h151e1581b8f5f652E+0x98>
  100840:	f71ff06f          	jal	x0,1007b0 <_ZN6mriscv4itoa17h151e1581b8f5f652E+0x9c>
  100844:	00104537          	lui	x10,0x104
  100848:	bc450613          	addi	x12,x10,-1084 # 103bc4 <.L__unnamed_1>
  10084c:	00090513          	addi	x10,x18,0
  100850:	00090593          	addi	x11,x18,0
  100854:	00000097          	auipc	x1,0x0
  100858:	210080e7          	jalr	x1,528(x1) # 100a64 <_ZN4core9panicking18panic_bounds_check17h1271d016dbbb83a7E>
  10085c:	c0001073          	unimp
  100860:	001045b7          	lui	x11,0x104
  100864:	be458613          	addi	x12,x11,-1052 # 103be4 <.L__unnamed_2>
  100868:	00090593          	addi	x11,x18,0
  10086c:	00000097          	auipc	x1,0x0
  100870:	1f8080e7          	jalr	x1,504(x1) # 100a64 <_ZN4core9panicking18panic_bounds_check17h1271d016dbbb83a7E>
  100874:	c0001073          	unimp
  100878:	00104537          	lui	x10,0x104
  10087c:	bf450613          	addi	x12,x10,-1036 # 103bf4 <.L__unnamed_3>
  100880:	00090513          	addi	x10,x18,0
  100884:	00090593          	addi	x11,x18,0
  100888:	00000097          	auipc	x1,0x0
  10088c:	1dc080e7          	jalr	x1,476(x1) # 100a64 <_ZN4core9panicking18panic_bounds_check17h1271d016dbbb83a7E>
  100890:	c0001073          	unimp
  100894:	00104537          	lui	x10,0x104
  100898:	bd450613          	addi	x12,x10,-1068 # 103bd4 <.L__unnamed_4>
  10089c:	000a0513          	addi	x10,x20,0
  1008a0:	00090593          	addi	x11,x18,0
  1008a4:	00000097          	auipc	x1,0x0
  1008a8:	1c0080e7          	jalr	x1,448(x1) # 100a64 <_ZN4core9panicking18panic_bounds_check17h1271d016dbbb83a7E>
  1008ac:	c0001073          	unimp

001008b0 <_ZN6mriscv5print17hfb106271725a4fc4E>:
  1008b0:	02058863          	beq	x11,x0,1008e0 <_ZN6mriscv5print17hfb106271725a4fc4E+0x30>
  1008b4:	00001637          	lui	x12,0x1
  1008b8:	00062683          	lw	x13,0(x12) # 1000 <_hart_stack_size+0x800>
  1008bc:	fff00713          	addi	x14,x0,-1
  1008c0:	02d75263          	bge	x14,x13,1008e4 <_ZN6mriscv5print17hfb106271725a4fc4E+0x34>
  1008c4:	00054783          	lbu	x15,0(x10)
  1008c8:	00150513          	addi	x10,x10,1
  1008cc:	f006f693          	andi	x13,x13,-256
  1008d0:	00f6e6b3          	or	x13,x13,x15
  1008d4:	fff58593          	addi	x11,x11,-1
  1008d8:	00d62023          	sw	x13,0(x12)
  1008dc:	fe0592e3          	bne	x11,x0,1008c0 <_ZN6mriscv5print17hfb106271725a4fc4E+0x10>
  1008e0:	00008067          	jalr	x0,0(x1)
  1008e4:	0000006f          	jal	x0,1008e4 <_ZN6mriscv5print17hfb106271725a4fc4E+0x34>

001008e8 <_ZN4core3ops8function6FnOnce9call_once17hf95a512840697715E>:
  1008e8:	00052503          	lw	x10,0(x10)
  1008ec:	0000006f          	jal	x0,1008ec <_ZN4core3ops8function6FnOnce9call_once17hf95a512840697715E+0x4>

001008f0 <_ZN4core3ptr13drop_in_place17h01b7feff90658c0cE>:
  1008f0:	00008067          	jalr	x0,0(x1)

001008f4 <_ZN71_$LT$core..ops..range..Range$LT$Idx$GT$$u20$as$u20$core..fmt..Debug$GT$3fmt17h929735d245d407f5E>:
  1008f4:	fd010113          	addi	x2,x2,-48
  1008f8:	02112623          	sw	x1,44(x2)
  1008fc:	02812423          	sw	x8,40(x2)
  100900:	02912223          	sw	x9,36(x2)
  100904:	00058413          	addi	x8,x11,0
  100908:	00050493          	addi	x9,x10,0
  10090c:	00002097          	auipc	x1,0x2
  100910:	5f0080e7          	jalr	x1,1520(x1) # 102efc <_ZN4core3fmt3num52_$LT$impl$u20$core..fmt..Debug$u20$for$u20$usize$GT$3fmt17h0c9ce5cc75d55056E>
  100914:	04051263          	bne	x10,x0,100958 <_ZN71_$LT$core..ops..range..Range$LT$Idx$GT$$u20$as$u20$core..fmt..Debug$GT$3fmt17h929735d245d407f5E+0x64>
  100918:	01842503          	lw	x10,24(x8)
  10091c:	01c42583          	lw	x11,28(x8)
  100920:	00104637          	lui	x12,0x104
  100924:	c0860613          	addi	x12,x12,-1016 # 103c08 <.Lanon.463b8e1712595053e4e5ae8ec20c28a1.141>
  100928:	00c12423          	sw	x12,8(x2)
  10092c:	00100613          	addi	x12,x0,1
  100930:	00c12623          	sw	x12,12(x2)
  100934:	00012823          	sw	x0,16(x2)
  100938:	00104637          	lui	x12,0x104
  10093c:	c0460613          	addi	x12,x12,-1020 # 103c04 <.Lanon.463b8e1712595053e4e5ae8ec20c28a1.33>
  100940:	00c12c23          	sw	x12,24(x2)
  100944:	00012e23          	sw	x0,28(x2)
  100948:	00810613          	addi	x12,x2,8
  10094c:	00001097          	auipc	x1,0x1
  100950:	b24080e7          	jalr	x1,-1244(x1) # 101470 <_ZN4core3fmt5write17hc4cfb234790a7690E>
  100954:	00050e63          	beq	x10,x0,100970 <_ZN71_$LT$core..ops..range..Range$LT$Idx$GT$$u20$as$u20$core..fmt..Debug$GT$3fmt17h929735d245d407f5E+0x7c>
  100958:	00100513          	addi	x10,x0,1
  10095c:	02412483          	lw	x9,36(x2)
  100960:	02812403          	lw	x8,40(x2)
  100964:	02c12083          	lw	x1,44(x2)
  100968:	03010113          	addi	x2,x2,48
  10096c:	00008067          	jalr	x0,0(x1)
  100970:	00448513          	addi	x10,x9,4
  100974:	00040593          	addi	x11,x8,0
  100978:	02412483          	lw	x9,36(x2)
  10097c:	02812403          	lw	x8,40(x2)
  100980:	02c12083          	lw	x1,44(x2)
  100984:	03010113          	addi	x2,x2,48
  100988:	00002317          	auipc	x6,0x2
  10098c:	57430067          	jalr	x0,1396(x6) # 102efc <_ZN4core3fmt3num52_$LT$impl$u20$core..fmt..Debug$u20$for$u20$usize$GT$3fmt17h0c9ce5cc75d55056E>

00100990 <_ZN36_$LT$T$u20$as$u20$core..any..Any$GT$7type_id17h96ef187d628aad5dE>:
  100990:	3fccf537          	lui	x10,0x3fccf
  100994:	80250513          	addi	x10,x10,-2046 # 3fcce802 <_sstack+0x3dcce802>
  100998:	85ca35b7          	lui	x11,0x85ca3
  10099c:	ace58593          	addi	x11,x11,-1330 # 85ca2ace <_sstack+0x83ca2ace>
  1009a0:	00008067          	jalr	x0,0(x1)

001009a4 <_ZN4core6option18expect_none_failed17hff240b62f4f959bdE>:
  1009a4:	fc010113          	addi	x2,x2,-64
  1009a8:	02112e23          	sw	x1,60(x2)
  1009ac:	00a12023          	sw	x10,0(x2)
  1009b0:	00b12223          	sw	x11,4(x2)
  1009b4:	00c12423          	sw	x12,8(x2)
  1009b8:	00d12623          	sw	x13,12(x2)
  1009bc:	00010513          	addi	x10,x2,0
  1009c0:	02a12423          	sw	x10,40(x2)
  1009c4:	00103537          	lui	x10,0x103
  1009c8:	59850513          	addi	x10,x10,1432 # 103598 <_ZN44_$LT$$RF$T$u20$as$u20$core..fmt..Display$GT$3fmt17h8e3360572887809bE>
  1009cc:	02a12623          	sw	x10,44(x2)
  1009d0:	00810513          	addi	x10,x2,8
  1009d4:	02a12823          	sw	x10,48(x2)
  1009d8:	00103537          	lui	x10,0x103
  1009dc:	43c50513          	addi	x10,x10,1084 # 10343c <_ZN42_$LT$$RF$T$u20$as$u20$core..fmt..Debug$GT$3fmt17h85c43da40688ff9bE>
  1009e0:	02a12a23          	sw	x10,52(x2)
  1009e4:	00104537          	lui	x10,0x104
  1009e8:	c7050513          	addi	x10,x10,-912 # 103c70 <.Lanon.463b8e1712595053e4e5ae8ec20c28a1.178>
  1009ec:	00a12823          	sw	x10,16(x2)
  1009f0:	00200513          	addi	x10,x0,2
  1009f4:	00a12a23          	sw	x10,20(x2)
  1009f8:	00012c23          	sw	x0,24(x2)
  1009fc:	02810593          	addi	x11,x2,40
  100a00:	02b12023          	sw	x11,32(x2)
  100a04:	02a12223          	sw	x10,36(x2)
  100a08:	01010513          	addi	x10,x2,16
  100a0c:	00070593          	addi	x11,x14,0
  100a10:	00000097          	auipc	x1,0x0
  100a14:	0bc080e7          	jalr	x1,188(x1) # 100acc <_ZN4core9panicking9panic_fmt17h9b4c539136e2bca5E>
  100a18:	c0001073          	unimp

00100a1c <_ZN4core9panicking5panic17h1e4bec584ca2162eE>:
  100a1c:	fd010113          	addi	x2,x2,-48
  100a20:	02112623          	sw	x1,44(x2)
  100a24:	02a12023          	sw	x10,32(x2)
  100a28:	02b12223          	sw	x11,36(x2)
  100a2c:	02010513          	addi	x10,x2,32
  100a30:	00a12423          	sw	x10,8(x2)
  100a34:	00100513          	addi	x10,x0,1
  100a38:	00a12623          	sw	x10,12(x2)
  100a3c:	00012823          	sw	x0,16(x2)
  100a40:	00104537          	lui	x10,0x104
  100a44:	c0450513          	addi	x10,x10,-1020 # 103c04 <.Lanon.463b8e1712595053e4e5ae8ec20c28a1.33>
  100a48:	00a12c23          	sw	x10,24(x2)
  100a4c:	00012e23          	sw	x0,28(x2)
  100a50:	00810513          	addi	x10,x2,8
  100a54:	00060593          	addi	x11,x12,0
  100a58:	00000097          	auipc	x1,0x0
  100a5c:	074080e7          	jalr	x1,116(x1) # 100acc <_ZN4core9panicking9panic_fmt17h9b4c539136e2bca5E>
  100a60:	c0001073          	unimp

00100a64 <_ZN4core9panicking18panic_bounds_check17h1271d016dbbb83a7E>:
  100a64:	fc010113          	addi	x2,x2,-64
  100a68:	02112e23          	sw	x1,60(x2)
  100a6c:	00a12423          	sw	x10,8(x2)
  100a70:	00b12623          	sw	x11,12(x2)
  100a74:	00c10513          	addi	x10,x2,12
  100a78:	02a12423          	sw	x10,40(x2)
  100a7c:	00103537          	lui	x10,0x103
  100a80:	01450513          	addi	x10,x10,20 # 103014 <_ZN4core3fmt3num3imp52_$LT$impl$u20$core..fmt..Display$u20$for$u20$u32$GT$3fmt17hc564521f9957f2c6E>
  100a84:	02a12623          	sw	x10,44(x2)
  100a88:	00810593          	addi	x11,x2,8
  100a8c:	02b12823          	sw	x11,48(x2)
  100a90:	02a12a23          	sw	x10,52(x2)
  100a94:	00104537          	lui	x10,0x104
  100a98:	d0450513          	addi	x10,x10,-764 # 103d04 <.Lanon.463b8e1712595053e4e5ae8ec20c28a1.188>
  100a9c:	00a12823          	sw	x10,16(x2)
  100aa0:	00200513          	addi	x10,x0,2
  100aa4:	00a12a23          	sw	x10,20(x2)
  100aa8:	00012c23          	sw	x0,24(x2)
  100aac:	02810593          	addi	x11,x2,40
  100ab0:	02b12023          	sw	x11,32(x2)
  100ab4:	02a12223          	sw	x10,36(x2)
  100ab8:	01010513          	addi	x10,x2,16
  100abc:	00060593          	addi	x11,x12,0
  100ac0:	00000097          	auipc	x1,0x0
  100ac4:	00c080e7          	jalr	x1,12(x1) # 100acc <_ZN4core9panicking9panic_fmt17h9b4c539136e2bca5E>
  100ac8:	c0001073          	unimp

00100acc <_ZN4core9panicking9panic_fmt17h9b4c539136e2bca5E>:
  100acc:	fe010113          	addi	x2,x2,-32
  100ad0:	00112e23          	sw	x1,28(x2)
  100ad4:	00104637          	lui	x12,0x104
  100ad8:	c0460613          	addi	x12,x12,-1020 # 103c04 <.Lanon.463b8e1712595053e4e5ae8ec20c28a1.33>
  100adc:	00c12423          	sw	x12,8(x2)
  100ae0:	00104637          	lui	x12,0x104
  100ae4:	c8060613          	addi	x12,x12,-896 # 103c80 <.Lanon.463b8e1712595053e4e5ae8ec20c28a1.179>
  100ae8:	00c12623          	sw	x12,12(x2)
  100aec:	00a12823          	sw	x10,16(x2)
  100af0:	00b12a23          	sw	x11,20(x2)
  100af4:	00810513          	addi	x10,x2,8
  100af8:	00003097          	auipc	x1,0x3
  100afc:	da0080e7          	jalr	x1,-608(x1) # 103898 <rust_begin_unwind>
  100b00:	c0001073          	unimp

00100b04 <_ZN68_$LT$core..fmt..builders..PadAdapter$u20$as$u20$core..fmt..Write$GT$9write_str17ha6988927d00e3584E>:
  100b04:	fb010113          	addi	x2,x2,-80
  100b08:	04112623          	sw	x1,76(x2)
  100b0c:	04812423          	sw	x8,72(x2)
  100b10:	04912223          	sw	x9,68(x2)
  100b14:	05212023          	sw	x18,64(x2)
  100b18:	03312e23          	sw	x19,60(x2)
  100b1c:	03412c23          	sw	x20,56(x2)
  100b20:	03512a23          	sw	x21,52(x2)
  100b24:	03612823          	sw	x22,48(x2)
  100b28:	03712623          	sw	x23,44(x2)
  100b2c:	03812423          	sw	x24,40(x2)
  100b30:	03912223          	sw	x25,36(x2)
  100b34:	03a12023          	sw	x26,32(x2)
  100b38:	01b12e23          	sw	x27,28(x2)
  100b3c:	1e060263          	beq	x12,x0,100d20 <_ZN68_$LT$core..fmt..builders..PadAdapter$u20$as$u20$core..fmt..Write$GT$9write_str17ha6988927d00e3584E+0x21c>
  100b40:	00060413          	addi	x8,x12,0
  100b44:	00058a93          	addi	x21,x11,0
  100b48:	00050913          	addi	x18,x10,0
  100b4c:	00a00b13          	addi	x22,x0,10
  100b50:	00010b93          	addi	x23,x2,0
  100b54:	00700c13          	addi	x24,x0,7
  100b58:	00100d93          	addi	x27,x0,1
  100b5c:	00104537          	lui	x10,0x104
  100b60:	c3050a13          	addi	x20,x10,-976 # 103c30 <.Lanon.463b8e1712595053e4e5ae8ec20c28a1.141+0x28>
  100b64:	0240006f          	jal	x0,100b88 <_ZN68_$LT$core..fmt..builders..PadAdapter$u20$as$u20$core..fmt..Write$GT$9write_str17ha6988927d00e3584E+0x84>
  100b68:	00c5a683          	lw	x13,12(x11)
  100b6c:	000a8593          	addi	x11,x21,0
  100b70:	00048613          	addi	x12,x9,0
  100b74:	000680e7          	jalr	x1,0(x13)
  100b78:	1a051863          	bne	x10,x0,100d28 <_ZN68_$LT$core..fmt..builders..PadAdapter$u20$as$u20$core..fmt..Write$GT$9write_str17ha6988927d00e3584E+0x224>
  100b7c:	40940433          	sub	x8,x8,x9
  100b80:	000d0a93          	addi	x21,x26,0
  100b84:	18040e63          	beq	x8,x0,100d20 <_ZN68_$LT$core..fmt..builders..PadAdapter$u20$as$u20$core..fmt..Write$GT$9write_str17ha6988927d00e3584E+0x21c>
  100b88:	00892503          	lw	x10,8(x18)
  100b8c:	00054503          	lbu	x10,0(x10)
  100b90:	02050063          	beq	x10,x0,100bb0 <_ZN68_$LT$core..fmt..builders..PadAdapter$u20$as$u20$core..fmt..Write$GT$9write_str17ha6988927d00e3584E+0xac>
  100b94:	00492583          	lw	x11,4(x18)
  100b98:	00092503          	lw	x10,0(x18)
  100b9c:	00c5a683          	lw	x13,12(x11)
  100ba0:	00400613          	addi	x12,x0,4
  100ba4:	000a0593          	addi	x11,x20,0
  100ba8:	000680e7          	jalr	x1,0(x13)
  100bac:	16051e63          	bne	x10,x0,100d28 <_ZN68_$LT$core..fmt..builders..PadAdapter$u20$as$u20$core..fmt..Write$GT$9write_str17ha6988927d00e3584E+0x224>
  100bb0:	00000d13          	addi	x26,x0,0
  100bb4:	01512023          	sw	x21,0(x2)
  100bb8:	00812223          	sw	x8,4(x2)
  100bbc:	00012423          	sw	x0,8(x2)
  100bc0:	00812623          	sw	x8,12(x2)
  100bc4:	01612823          	sw	x22,16(x2)
  100bc8:	00100493          	addi	x9,x0,1
  100bcc:	00912a23          	sw	x9,20(x2)
  100bd0:	01612c23          	sw	x22,24(x2)
  100bd4:	000a8593          	addi	x11,x21,0
  100bd8:	00040613          	addi	x12,x8,0
  100bdc:	00040713          	addi	x14,x8,0
  100be0:	01748533          	add	x10,x9,x23
  100be4:	01754503          	lbu	x10,23(x10)
  100be8:	01a586b3          	add	x13,x11,x26
  100bec:	08cc7c63          	bgeu	x24,x12,100c84 <_ZN68_$LT$core..fmt..builders..PadAdapter$u20$as$u20$core..fmt..Write$GT$9write_str17ha6988927d00e3584E+0x180>
  100bf0:	00068593          	addi	x11,x13,0
  100bf4:	00001097          	auipc	x1,0x1
  100bf8:	61c080e7          	jalr	x1,1564(x1) # 102210 <_ZN4core5slice6memchr19memchr_general_case17h8df678562042220aE>
  100bfc:	11b51663          	bne	x10,x27,100d08 <_ZN68_$LT$core..fmt..builders..PadAdapter$u20$as$u20$core..fmt..Write$GT$9write_str17ha6988927d00e3584E+0x204>
  100c00:	00812d03          	lw	x26,8(x2)
  100c04:	01412483          	lw	x9,20(x2)
  100c08:	00bd0533          	add	x10,x26,x11
  100c0c:	00150d13          	addi	x26,x10,1
  100c10:	01a12423          	sw	x26,8(x2)
  100c14:	009d7663          	bgeu	x26,x9,100c20 <_ZN68_$LT$core..fmt..builders..PadAdapter$u20$as$u20$core..fmt..Write$GT$9write_str17ha6988927d00e3584E+0x11c>
  100c18:	00412c83          	lw	x25,4(x2)
  100c1c:	03c0006f          	jal	x0,100c58 <_ZN68_$LT$core..fmt..builders..PadAdapter$u20$as$u20$core..fmt..Write$GT$9write_str17ha6988927d00e3584E+0x154>
  100c20:	00412c83          	lw	x25,4(x2)
  100c24:	03acea63          	bltu	x25,x26,100c58 <_ZN68_$LT$core..fmt..builders..PadAdapter$u20$as$u20$core..fmt..Write$GT$9write_str17ha6988927d00e3584E+0x154>
  100c28:	00500513          	addi	x10,x0,5
  100c2c:	12a4fe63          	bgeu	x9,x10,100d68 <_ZN68_$LT$core..fmt..builders..PadAdapter$u20$as$u20$core..fmt..Write$GT$9write_str17ha6988927d00e3584E+0x264>
  100c30:	00012503          	lw	x10,0(x2)
  100c34:	409d09b3          	sub	x19,x26,x9
  100c38:	01350533          	add	x10,x10,x19
  100c3c:	01810593          	addi	x11,x2,24
  100c40:	0cb50863          	beq	x10,x11,100d10 <_ZN68_$LT$core..fmt..builders..PadAdapter$u20$as$u20$core..fmt..Write$GT$9write_str17ha6988927d00e3584E+0x20c>
  100c44:	01810593          	addi	x11,x2,24
  100c48:	00048613          	addi	x12,x9,0
  100c4c:	00003097          	auipc	x1,0x3
  100c50:	e20080e7          	jalr	x1,-480(x1) # 103a6c <bcmp>
  100c54:	0a050e63          	beq	x10,x0,100d10 <_ZN68_$LT$core..fmt..builders..PadAdapter$u20$as$u20$core..fmt..Write$GT$9write_str17ha6988927d00e3584E+0x20c>
  100c58:	00c12703          	lw	x14,12(x2)
  100c5c:	01a73533          	sltu	x10,x14,x26
  100c60:	00ecb5b3          	sltu	x11,x25,x14
  100c64:	00b56533          	or	x10,x10,x11
  100c68:	04051063          	bne	x10,x0,100ca8 <_ZN68_$LT$core..fmt..builders..PadAdapter$u20$as$u20$core..fmt..Write$GT$9write_str17ha6988927d00e3584E+0x1a4>
  100c6c:	00012583          	lw	x11,0(x2)
  100c70:	41a70633          	sub	x12,x14,x26
  100c74:	01748533          	add	x10,x9,x23
  100c78:	01754503          	lbu	x10,23(x10)
  100c7c:	01a586b3          	add	x13,x11,x26
  100c80:	f6cc68e3          	bltu	x24,x12,100bf0 <_ZN68_$LT$core..fmt..builders..PadAdapter$u20$as$u20$core..fmt..Write$GT$9write_str17ha6988927d00e3584E+0xec>
  100c84:	02060063          	beq	x12,x0,100ca4 <_ZN68_$LT$core..fmt..builders..PadAdapter$u20$as$u20$core..fmt..Write$GT$9write_str17ha6988927d00e3584E+0x1a0>
  100c88:	00000593          	addi	x11,x0,0
  100c8c:	41a70633          	sub	x12,x14,x26
  100c90:	00b687b3          	add	x15,x13,x11
  100c94:	0007c783          	lbu	x15,0(x15)
  100c98:	f6a788e3          	beq	x15,x10,100c08 <_ZN68_$LT$core..fmt..builders..PadAdapter$u20$as$u20$core..fmt..Write$GT$9write_str17ha6988927d00e3584E+0x104>
  100c9c:	00158593          	addi	x11,x11,1
  100ca0:	feb618e3          	bne	x12,x11,100c90 <_ZN68_$LT$core..fmt..builders..PadAdapter$u20$as$u20$core..fmt..Write$GT$9write_str17ha6988927d00e3584E+0x18c>
  100ca4:	00e12423          	sw	x14,8(x2)
  100ca8:	00892503          	lw	x10,8(x18)
  100cac:	00050023          	sb	x0,0(x10)
  100cb0:	00040493          	addi	x9,x8,0
  100cb4:	00092503          	lw	x10,0(x18)
  100cb8:	00492583          	lw	x11,4(x18)
  100cbc:	0014b613          	sltiu	x12,x9,1
  100cc0:	009446b3          	xor	x13,x8,x9
  100cc4:	0016b693          	sltiu	x13,x13,1
  100cc8:	00d66633          	or	x12,x12,x13
  100ccc:	009a8d33          	add	x26,x21,x9
  100cd0:	e8061ce3          	bne	x12,x0,100b68 <_ZN68_$LT$core..fmt..builders..PadAdapter$u20$as$u20$core..fmt..Write$GT$9write_str17ha6988927d00e3584E+0x64>
  100cd4:	0a84f863          	bgeu	x9,x8,100d84 <_ZN68_$LT$core..fmt..builders..PadAdapter$u20$as$u20$core..fmt..Write$GT$9write_str17ha6988927d00e3584E+0x280>
  100cd8:	000d0603          	lb	x12,0(x26)
  100cdc:	fbf00693          	addi	x13,x0,-65
  100ce0:	0ac6d263          	bge	x13,x12,100d84 <_ZN68_$LT$core..fmt..builders..PadAdapter$u20$as$u20$core..fmt..Write$GT$9write_str17ha6988927d00e3584E+0x280>
  100ce4:	00c5a683          	lw	x13,12(x11)
  100ce8:	000a8593          	addi	x11,x21,0
  100cec:	00048613          	addi	x12,x9,0
  100cf0:	000680e7          	jalr	x1,0(x13)
  100cf4:	02051a63          	bne	x10,x0,100d28 <_ZN68_$LT$core..fmt..builders..PadAdapter$u20$as$u20$core..fmt..Write$GT$9write_str17ha6988927d00e3584E+0x224>
  100cf8:	000d0503          	lb	x10,0(x26)
  100cfc:	fbf00593          	addi	x11,x0,-65
  100d00:	e6a5cee3          	blt	x11,x10,100b7c <_ZN68_$LT$core..fmt..builders..PadAdapter$u20$as$u20$core..fmt..Write$GT$9write_str17ha6988927d00e3584E+0x78>
  100d04:	0a40006f          	jal	x0,100da8 <_ZN68_$LT$core..fmt..builders..PadAdapter$u20$as$u20$core..fmt..Write$GT$9write_str17ha6988927d00e3584E+0x2a4>
  100d08:	00c12703          	lw	x14,12(x2)
  100d0c:	f99ff06f          	jal	x0,100ca4 <_ZN68_$LT$core..fmt..builders..PadAdapter$u20$as$u20$core..fmt..Write$GT$9write_str17ha6988927d00e3584E+0x1a0>
  100d10:	00892503          	lw	x10,8(x18)
  100d14:	01b50023          	sb	x27,0(x10)
  100d18:	00198493          	addi	x9,x19,1
  100d1c:	f99ff06f          	jal	x0,100cb4 <_ZN68_$LT$core..fmt..builders..PadAdapter$u20$as$u20$core..fmt..Write$GT$9write_str17ha6988927d00e3584E+0x1b0>
  100d20:	00000513          	addi	x10,x0,0
  100d24:	0080006f          	jal	x0,100d2c <_ZN68_$LT$core..fmt..builders..PadAdapter$u20$as$u20$core..fmt..Write$GT$9write_str17ha6988927d00e3584E+0x228>
  100d28:	00100513          	addi	x10,x0,1
  100d2c:	01c12d83          	lw	x27,28(x2)
  100d30:	02012d03          	lw	x26,32(x2)
  100d34:	02412c83          	lw	x25,36(x2)
  100d38:	02812c03          	lw	x24,40(x2)
  100d3c:	02c12b83          	lw	x23,44(x2)
  100d40:	03012b03          	lw	x22,48(x2)
  100d44:	03412a83          	lw	x21,52(x2)
  100d48:	03812a03          	lw	x20,56(x2)
  100d4c:	03c12983          	lw	x19,60(x2)
  100d50:	04012903          	lw	x18,64(x2)
  100d54:	04412483          	lw	x9,68(x2)
  100d58:	04812403          	lw	x8,72(x2)
  100d5c:	04c12083          	lw	x1,76(x2)
  100d60:	05010113          	addi	x2,x2,80
  100d64:	00008067          	jalr	x0,0(x1)
  100d68:	00104537          	lui	x10,0x104
  100d6c:	07c50613          	addi	x12,x10,124 # 10407c <.Lanon.463b8e1712595053e4e5ae8ec20c28a1.286>
  100d70:	00400593          	addi	x11,x0,4
  100d74:	00048513          	addi	x10,x9,0
  100d78:	00001097          	auipc	x1,0x1
  100d7c:	678080e7          	jalr	x1,1656(x1) # 1023f0 <_ZN4core5slice5index24slice_end_index_len_fail17ha1975a8c2a737844E>
  100d80:	c0001073          	unimp
  100d84:	00104537          	lui	x10,0x104
  100d88:	d2c50713          	addi	x14,x10,-724 # 103d2c <.Lanon.463b8e1712595053e4e5ae8ec20c28a1.192>
  100d8c:	000a8513          	addi	x10,x21,0
  100d90:	00040593          	addi	x11,x8,0
  100d94:	00000613          	addi	x12,x0,0
  100d98:	00048693          	addi	x13,x9,0
  100d9c:	00002097          	auipc	x1,0x2
  100da0:	a48080e7          	jalr	x1,-1464(x1) # 1027e4 <_ZN4core3str16slice_error_fail17hb3a94a39cc45776aE>
  100da4:	c0001073          	unimp
  100da8:	00104537          	lui	x10,0x104
  100dac:	d3c50713          	addi	x14,x10,-708 # 103d3c <.Lanon.463b8e1712595053e4e5ae8ec20c28a1.193>
  100db0:	000a8513          	addi	x10,x21,0
  100db4:	00040593          	addi	x11,x8,0
  100db8:	00048613          	addi	x12,x9,0
  100dbc:	00040693          	addi	x13,x8,0
  100dc0:	00002097          	auipc	x1,0x2
  100dc4:	a24080e7          	jalr	x1,-1500(x1) # 1027e4 <_ZN4core3str16slice_error_fail17hb3a94a39cc45776aE>
  100dc8:	c0001073          	unimp

00100dcc <_ZN4core3fmt8builders11DebugStruct5field17hff0f4c3e6bd37dc5E>:
  100dcc:	fa010113          	addi	x2,x2,-96
  100dd0:	04112e23          	sw	x1,92(x2)
  100dd4:	04812c23          	sw	x8,88(x2)
  100dd8:	04912a23          	sw	x9,84(x2)
  100ddc:	05212823          	sw	x18,80(x2)
  100de0:	05312623          	sw	x19,76(x2)
  100de4:	05412423          	sw	x20,72(x2)
  100de8:	05512223          	sw	x21,68(x2)
  100dec:	05612023          	sw	x22,64(x2)
  100df0:	00050413          	addi	x8,x10,0
  100df4:	00454503          	lbu	x10,4(x10)
  100df8:	00100b13          	addi	x22,x0,1
  100dfc:	00100493          	addi	x9,x0,1
  100e00:	02050c63          	beq	x10,x0,100e38 <_ZN4core3fmt8builders11DebugStruct5field17hff0f4c3e6bd37dc5E+0x6c>
  100e04:	00940223          	sb	x9,4(x8)
  100e08:	016402a3          	sb	x22,5(x8)
  100e0c:	00040513          	addi	x10,x8,0
  100e10:	04012b03          	lw	x22,64(x2)
  100e14:	04412a83          	lw	x21,68(x2)
  100e18:	04812a03          	lw	x20,72(x2)
  100e1c:	04c12983          	lw	x19,76(x2)
  100e20:	05012903          	lw	x18,80(x2)
  100e24:	05412483          	lw	x9,84(x2)
  100e28:	05812403          	lw	x8,88(x2)
  100e2c:	05c12083          	lw	x1,92(x2)
  100e30:	06010113          	addi	x2,x2,96
  100e34:	00008067          	jalr	x0,0(x1)
  100e38:	00070993          	addi	x19,x14,0
  100e3c:	00068913          	addi	x18,x13,0
  100e40:	00060a13          	addi	x20,x12,0
  100e44:	00058a93          	addi	x21,x11,0
  100e48:	00042503          	lw	x10,0(x8)
  100e4c:	00054583          	lbu	x11,0(x10)
  100e50:	00544603          	lbu	x12,5(x8)
  100e54:	0045f593          	andi	x11,x11,4
  100e58:	00163613          	sltiu	x12,x12,1
  100e5c:	00059a63          	bne	x11,x0,100e70 <_ZN4core3fmt8builders11DebugStruct5field17hff0f4c3e6bd37dc5E+0xa4>
  100e60:	10061663          	bne	x12,x0,100f6c <_ZN4core3fmt8builders11DebugStruct5field17hff0f4c3e6bd37dc5E+0x1a0>
  100e64:	001045b7          	lui	x11,0x104
  100e68:	d5158593          	addi	x11,x11,-687 # 103d51 <.Lanon.463b8e1712595053e4e5ae8ec20c28a1.196>
  100e6c:	1080006f          	jal	x0,100f74 <_ZN4core3fmt8builders11DebugStruct5field17hff0f4c3e6bd37dc5E+0x1a8>
  100e70:	02060663          	beq	x12,x0,100e9c <_ZN4core3fmt8builders11DebugStruct5field17hff0f4c3e6bd37dc5E+0xd0>
  100e74:	01c52583          	lw	x11,28(x10)
  100e78:	01852503          	lw	x10,24(x10)
  100e7c:	00c5a683          	lw	x13,12(x11)
  100e80:	001045b7          	lui	x11,0x104
  100e84:	d4c58593          	addi	x11,x11,-692 # 103d4c <.Lanon.463b8e1712595053e4e5ae8ec20c28a1.194>
  100e88:	00300613          	addi	x12,x0,3
  100e8c:	000680e7          	jalr	x1,0(x13)
  100e90:	00100493          	addi	x9,x0,1
  100e94:	f60518e3          	bne	x10,x0,100e04 <_ZN4core3fmt8builders11DebugStruct5field17hff0f4c3e6bd37dc5E+0x38>
  100e98:	00042503          	lw	x10,0(x8)
  100e9c:	00100493          	addi	x9,x0,1
  100ea0:	00910ba3          	sb	x9,23(x2)
  100ea4:	01852583          	lw	x11,24(x10)
  100ea8:	01c52603          	lw	x12,28(x10)
  100eac:	00b12423          	sw	x11,8(x2)
  100eb0:	00c12623          	sw	x12,12(x2)
  100eb4:	01710593          	addi	x11,x2,23
  100eb8:	00b12823          	sw	x11,16(x2)
  100ebc:	00052583          	lw	x11,0(x10)
  100ec0:	00452603          	lw	x12,4(x10)
  100ec4:	02050683          	lb	x13,32(x10)
  100ec8:	00852703          	lw	x14,8(x10)
  100ecc:	00c52783          	lw	x15,12(x10)
  100ed0:	01052803          	lw	x16,16(x10)
  100ed4:	01452503          	lw	x10,20(x10)
  100ed8:	00b12c23          	sw	x11,24(x2)
  100edc:	00c12e23          	sw	x12,28(x2)
  100ee0:	02d10c23          	sb	x13,56(x2)
  100ee4:	02e12023          	sw	x14,32(x2)
  100ee8:	02f12223          	sw	x15,36(x2)
  100eec:	03012423          	sw	x16,40(x2)
  100ef0:	02a12623          	sw	x10,44(x2)
  100ef4:	00810513          	addi	x10,x2,8
  100ef8:	02a12823          	sw	x10,48(x2)
  100efc:	001045b7          	lui	x11,0x104
  100f00:	d1458593          	addi	x11,x11,-748 # 103d14 <.Lanon.463b8e1712595053e4e5ae8ec20c28a1.190>
  100f04:	02b12a23          	sw	x11,52(x2)
  100f08:	000a8593          	addi	x11,x21,0
  100f0c:	000a0613          	addi	x12,x20,0
  100f10:	00000097          	auipc	x1,0x0
  100f14:	bf4080e7          	jalr	x1,-1036(x1) # 100b04 <_ZN68_$LT$core..fmt..builders..PadAdapter$u20$as$u20$core..fmt..Write$GT$9write_str17ha6988927d00e3584E>
  100f18:	ee0516e3          	bne	x10,x0,100e04 <_ZN4core3fmt8builders11DebugStruct5field17hff0f4c3e6bd37dc5E+0x38>
  100f1c:	00104537          	lui	x10,0x104
  100f20:	c6b50593          	addi	x11,x10,-917 # 103c6b <.Lanon.463b8e1712595053e4e5ae8ec20c28a1.177>
  100f24:	00810513          	addi	x10,x2,8
  100f28:	00200613          	addi	x12,x0,2
  100f2c:	00000097          	auipc	x1,0x0
  100f30:	bd8080e7          	jalr	x1,-1064(x1) # 100b04 <_ZN68_$LT$core..fmt..builders..PadAdapter$u20$as$u20$core..fmt..Write$GT$9write_str17ha6988927d00e3584E>
  100f34:	ec0518e3          	bne	x10,x0,100e04 <_ZN4core3fmt8builders11DebugStruct5field17hff0f4c3e6bd37dc5E+0x38>
  100f38:	00c9a603          	lw	x12,12(x19)
  100f3c:	01810593          	addi	x11,x2,24
  100f40:	00090513          	addi	x10,x18,0
  100f44:	000600e7          	jalr	x1,0(x12)
  100f48:	ea051ee3          	bne	x10,x0,100e04 <_ZN4core3fmt8builders11DebugStruct5field17hff0f4c3e6bd37dc5E+0x38>
  100f4c:	03412583          	lw	x11,52(x2)
  100f50:	03012503          	lw	x10,48(x2)
  100f54:	00c5a683          	lw	x13,12(x11)
  100f58:	001045b7          	lui	x11,0x104
  100f5c:	d4f58593          	addi	x11,x11,-689 # 103d4f <.Lanon.463b8e1712595053e4e5ae8ec20c28a1.195>
  100f60:	00200613          	addi	x12,x0,2
  100f64:	000680e7          	jalr	x1,0(x13)
  100f68:	0840006f          	jal	x0,100fec <_ZN4core3fmt8builders11DebugStruct5field17hff0f4c3e6bd37dc5E+0x220>
  100f6c:	001045b7          	lui	x11,0x104
  100f70:	d5358593          	addi	x11,x11,-685 # 103d53 <.Lanon.463b8e1712595053e4e5ae8ec20c28a1.197>
  100f74:	01c52683          	lw	x13,28(x10)
  100f78:	01852503          	lw	x10,24(x10)
  100f7c:	00c6a683          	lw	x13,12(x13)
  100f80:	00266613          	ori	x12,x12,2
  100f84:	000680e7          	jalr	x1,0(x13)
  100f88:	00100493          	addi	x9,x0,1
  100f8c:	e6051ce3          	bne	x10,x0,100e04 <_ZN4core3fmt8builders11DebugStruct5field17hff0f4c3e6bd37dc5E+0x38>
  100f90:	00042503          	lw	x10,0(x8)
  100f94:	01c52583          	lw	x11,28(x10)
  100f98:	01852503          	lw	x10,24(x10)
  100f9c:	00c5a683          	lw	x13,12(x11)
  100fa0:	000a8593          	addi	x11,x21,0
  100fa4:	000a0613          	addi	x12,x20,0
  100fa8:	000680e7          	jalr	x1,0(x13)
  100fac:	00100493          	addi	x9,x0,1
  100fb0:	e4051ae3          	bne	x10,x0,100e04 <_ZN4core3fmt8builders11DebugStruct5field17hff0f4c3e6bd37dc5E+0x38>
  100fb4:	00042503          	lw	x10,0(x8)
  100fb8:	01c52583          	lw	x11,28(x10)
  100fbc:	01852503          	lw	x10,24(x10)
  100fc0:	00c5a683          	lw	x13,12(x11)
  100fc4:	001045b7          	lui	x11,0x104
  100fc8:	c6b58593          	addi	x11,x11,-917 # 103c6b <.Lanon.463b8e1712595053e4e5ae8ec20c28a1.177>
  100fcc:	00200613          	addi	x12,x0,2
  100fd0:	000680e7          	jalr	x1,0(x13)
  100fd4:	00100493          	addi	x9,x0,1
  100fd8:	e20516e3          	bne	x10,x0,100e04 <_ZN4core3fmt8builders11DebugStruct5field17hff0f4c3e6bd37dc5E+0x38>
  100fdc:	00042583          	lw	x11,0(x8)
  100fe0:	00c9a603          	lw	x12,12(x19)
  100fe4:	00090513          	addi	x10,x18,0
  100fe8:	000600e7          	jalr	x1,0(x12)
  100fec:	00050493          	addi	x9,x10,0
  100ff0:	e15ff06f          	jal	x0,100e04 <_ZN4core3fmt8builders11DebugStruct5field17hff0f4c3e6bd37dc5E+0x38>

00100ff4 <_ZN4core3fmt8builders10DebugTuple5field17hc8a6916efd46120bE>:
  100ff4:	fb010113          	addi	x2,x2,-80
  100ff8:	04112623          	sw	x1,76(x2)
  100ffc:	04812423          	sw	x8,72(x2)
  101000:	04912223          	sw	x9,68(x2)
  101004:	05212023          	sw	x18,64(x2)
  101008:	03312e23          	sw	x19,60(x2)
  10100c:	00050413          	addi	x8,x10,0
  101010:	00854503          	lbu	x10,8(x10)
  101014:	00100493          	addi	x9,x0,1
  101018:	12051a63          	bne	x10,x0,10114c <_ZN4core3fmt8builders10DebugTuple5field17hc8a6916efd46120bE+0x158>
  10101c:	00060993          	addi	x19,x12,0
  101020:	00058913          	addi	x18,x11,0
  101024:	00042503          	lw	x10,0(x8)
  101028:	00054583          	lbu	x11,0(x10)
  10102c:	00442603          	lw	x12,4(x8)
  101030:	0045f593          	andi	x11,x11,4
  101034:	00163613          	sltiu	x12,x12,1
  101038:	00059a63          	bne	x11,x0,10104c <_ZN4core3fmt8builders10DebugTuple5field17hc8a6916efd46120bE+0x58>
  10103c:	0c061c63          	bne	x12,x0,101114 <_ZN4core3fmt8builders10DebugTuple5field17hc8a6916efd46120bE+0x120>
  101040:	001045b7          	lui	x11,0x104
  101044:	d5158593          	addi	x11,x11,-687 # 103d51 <.Lanon.463b8e1712595053e4e5ae8ec20c28a1.196>
  101048:	0d40006f          	jal	x0,10111c <_ZN4core3fmt8builders10DebugTuple5field17hc8a6916efd46120bE+0x128>
  10104c:	02060463          	beq	x12,x0,101074 <_ZN4core3fmt8builders10DebugTuple5field17hc8a6916efd46120bE+0x80>
  101050:	01c52583          	lw	x11,28(x10)
  101054:	01852503          	lw	x10,24(x10)
  101058:	00c5a683          	lw	x13,12(x11)
  10105c:	001045b7          	lui	x11,0x104
  101060:	d5958593          	addi	x11,x11,-679 # 103d59 <.Lanon.463b8e1712595053e4e5ae8ec20c28a1.203>
  101064:	00200613          	addi	x12,x0,2
  101068:	000680e7          	jalr	x1,0(x13)
  10106c:	0e051063          	bne	x10,x0,10114c <_ZN4core3fmt8builders10DebugTuple5field17hc8a6916efd46120bE+0x158>
  101070:	00042503          	lw	x10,0(x8)
  101074:	00100493          	addi	x9,x0,1
  101078:	00910ba3          	sb	x9,23(x2)
  10107c:	01852583          	lw	x11,24(x10)
  101080:	01c52603          	lw	x12,28(x10)
  101084:	00b12423          	sw	x11,8(x2)
  101088:	00c12623          	sw	x12,12(x2)
  10108c:	01710593          	addi	x11,x2,23
  101090:	00b12823          	sw	x11,16(x2)
  101094:	00052583          	lw	x11,0(x10)
  101098:	00452603          	lw	x12,4(x10)
  10109c:	02050683          	lb	x13,32(x10)
  1010a0:	00852703          	lw	x14,8(x10)
  1010a4:	00c52783          	lw	x15,12(x10)
  1010a8:	01052803          	lw	x16,16(x10)
  1010ac:	01452503          	lw	x10,20(x10)
  1010b0:	00b12c23          	sw	x11,24(x2)
  1010b4:	00c12e23          	sw	x12,28(x2)
  1010b8:	02d10c23          	sb	x13,56(x2)
  1010bc:	02e12023          	sw	x14,32(x2)
  1010c0:	02f12223          	sw	x15,36(x2)
  1010c4:	03012423          	sw	x16,40(x2)
  1010c8:	02a12623          	sw	x10,44(x2)
  1010cc:	00810513          	addi	x10,x2,8
  1010d0:	02a12823          	sw	x10,48(x2)
  1010d4:	00c9a603          	lw	x12,12(x19)
  1010d8:	00104537          	lui	x10,0x104
  1010dc:	d1450513          	addi	x10,x10,-748 # 103d14 <.Lanon.463b8e1712595053e4e5ae8ec20c28a1.190>
  1010e0:	02a12a23          	sw	x10,52(x2)
  1010e4:	01810593          	addi	x11,x2,24
  1010e8:	00090513          	addi	x10,x18,0
  1010ec:	000600e7          	jalr	x1,0(x12)
  1010f0:	04051e63          	bne	x10,x0,10114c <_ZN4core3fmt8builders10DebugTuple5field17hc8a6916efd46120bE+0x158>
  1010f4:	03412583          	lw	x11,52(x2)
  1010f8:	03012503          	lw	x10,48(x2)
  1010fc:	00c5a683          	lw	x13,12(x11)
  101100:	001045b7          	lui	x11,0x104
  101104:	d4f58593          	addi	x11,x11,-689 # 103d4f <.Lanon.463b8e1712595053e4e5ae8ec20c28a1.195>
  101108:	00200613          	addi	x12,x0,2
  10110c:	000680e7          	jalr	x1,0(x13)
  101110:	0380006f          	jal	x0,101148 <_ZN4core3fmt8builders10DebugTuple5field17hc8a6916efd46120bE+0x154>
  101114:	001045b7          	lui	x11,0x104
  101118:	d5b58593          	addi	x11,x11,-677 # 103d5b <.Lanon.463b8e1712595053e4e5ae8ec20c28a1.204>
  10111c:	01c52683          	lw	x13,28(x10)
  101120:	01852503          	lw	x10,24(x10)
  101124:	00c6a683          	lw	x13,12(x13)
  101128:	00200713          	addi	x14,x0,2
  10112c:	40c70633          	sub	x12,x14,x12
  101130:	000680e7          	jalr	x1,0(x13)
  101134:	00051c63          	bne	x10,x0,10114c <_ZN4core3fmt8builders10DebugTuple5field17hc8a6916efd46120bE+0x158>
  101138:	00042583          	lw	x11,0(x8)
  10113c:	00c9a603          	lw	x12,12(x19)
  101140:	00090513          	addi	x10,x18,0
  101144:	000600e7          	jalr	x1,0(x12)
  101148:	00050493          	addi	x9,x10,0
  10114c:	00442503          	lw	x10,4(x8)
  101150:	00940423          	sb	x9,8(x8)
  101154:	00150513          	addi	x10,x10,1
  101158:	00a42223          	sw	x10,4(x8)
  10115c:	00040513          	addi	x10,x8,0
  101160:	03c12983          	lw	x19,60(x2)
  101164:	04012903          	lw	x18,64(x2)
  101168:	04412483          	lw	x9,68(x2)
  10116c:	04812403          	lw	x8,72(x2)
  101170:	04c12083          	lw	x1,76(x2)
  101174:	05010113          	addi	x2,x2,80
  101178:	00008067          	jalr	x0,0(x1)

0010117c <_ZN4core3fmt5Write10write_char17hce676933cb1fa780E>:
  10117c:	ff010113          	addi	x2,x2,-16
  101180:	00112623          	sw	x1,12(x2)
  101184:	00058613          	addi	x12,x11,0
  101188:	08000593          	addi	x11,x0,128
  10118c:	00012423          	sw	x0,8(x2)
  101190:	02b67263          	bgeu	x12,x11,1011b4 <_ZN4core3fmt5Write10write_char17hce676933cb1fa780E+0x38>
  101194:	00810593          	addi	x11,x2,8
  101198:	00c10423          	sb	x12,8(x2)
  10119c:	00100613          	addi	x12,x0,1
  1011a0:	00000097          	auipc	x1,0x0
  1011a4:	964080e7          	jalr	x1,-1692(x1) # 100b04 <_ZN68_$LT$core..fmt..builders..PadAdapter$u20$as$u20$core..fmt..Write$GT$9write_str17ha6988927d00e3584E>
  1011a8:	00c12083          	lw	x1,12(x2)
  1011ac:	01010113          	addi	x2,x2,16
  1011b0:	00008067          	jalr	x0,0(x1)
  1011b4:	00b65593          	srli	x11,x12,0xb
  1011b8:	02059c63          	bne	x11,x0,1011f0 <_ZN4core3fmt5Write10write_char17hce676933cb1fa780E+0x74>
  1011bc:	00810593          	addi	x11,x2,8
  1011c0:	00665693          	srli	x13,x12,0x6
  1011c4:	0c06e693          	ori	x13,x13,192
  1011c8:	00d10423          	sb	x13,8(x2)
  1011cc:	03f67613          	andi	x12,x12,63
  1011d0:	08066613          	ori	x12,x12,128
  1011d4:	00c104a3          	sb	x12,9(x2)
  1011d8:	00200613          	addi	x12,x0,2
  1011dc:	00000097          	auipc	x1,0x0
  1011e0:	928080e7          	jalr	x1,-1752(x1) # 100b04 <_ZN68_$LT$core..fmt..builders..PadAdapter$u20$as$u20$core..fmt..Write$GT$9write_str17ha6988927d00e3584E>
  1011e4:	00c12083          	lw	x1,12(x2)
  1011e8:	01010113          	addi	x2,x2,16
  1011ec:	00008067          	jalr	x0,0(x1)
  1011f0:	01065693          	srli	x13,x12,0x10
  1011f4:	00810593          	addi	x11,x2,8
  1011f8:	04069263          	bne	x13,x0,10123c <_ZN4core3fmt5Write10write_char17hce676933cb1fa780E+0xc0>
  1011fc:	00c65693          	srli	x13,x12,0xc
  101200:	0e06e693          	ori	x13,x13,224
  101204:	00d10423          	sb	x13,8(x2)
  101208:	00665693          	srli	x13,x12,0x6
  10120c:	03f6f693          	andi	x13,x13,63
  101210:	0806e693          	ori	x13,x13,128
  101214:	00d104a3          	sb	x13,9(x2)
  101218:	03f67613          	andi	x12,x12,63
  10121c:	08066613          	ori	x12,x12,128
  101220:	00c10523          	sb	x12,10(x2)
  101224:	00300613          	addi	x12,x0,3
  101228:	00000097          	auipc	x1,0x0
  10122c:	8dc080e7          	jalr	x1,-1828(x1) # 100b04 <_ZN68_$LT$core..fmt..builders..PadAdapter$u20$as$u20$core..fmt..Write$GT$9write_str17ha6988927d00e3584E>
  101230:	00c12083          	lw	x1,12(x2)
  101234:	01010113          	addi	x2,x2,16
  101238:	00008067          	jalr	x0,0(x1)
  10123c:	01265693          	srli	x13,x12,0x12
  101240:	0f06e693          	ori	x13,x13,240
  101244:	00d10423          	sb	x13,8(x2)
  101248:	00c65693          	srli	x13,x12,0xc
  10124c:	03f6f693          	andi	x13,x13,63
  101250:	0806e693          	ori	x13,x13,128
  101254:	00d104a3          	sb	x13,9(x2)
  101258:	00665693          	srli	x13,x12,0x6
  10125c:	03f6f693          	andi	x13,x13,63
  101260:	0806e693          	ori	x13,x13,128
  101264:	00d10523          	sb	x13,10(x2)
  101268:	03f67613          	andi	x12,x12,63
  10126c:	08066613          	ori	x12,x12,128
  101270:	00c105a3          	sb	x12,11(x2)
  101274:	00400613          	addi	x12,x0,4
  101278:	00000097          	auipc	x1,0x0
  10127c:	88c080e7          	jalr	x1,-1908(x1) # 100b04 <_ZN68_$LT$core..fmt..builders..PadAdapter$u20$as$u20$core..fmt..Write$GT$9write_str17ha6988927d00e3584E>
  101280:	00c12083          	lw	x1,12(x2)
  101284:	01010113          	addi	x2,x2,16
  101288:	00008067          	jalr	x0,0(x1)

0010128c <_ZN4core3fmt5Write9write_fmt17h635f4cc4d2637c46E>:
  10128c:	fd010113          	addi	x2,x2,-48
  101290:	02112623          	sw	x1,44(x2)
  101294:	0145a603          	lw	x12,20(x11)
  101298:	0105a683          	lw	x13,16(x11)
  10129c:	00a12623          	sw	x10,12(x2)
  1012a0:	02c12223          	sw	x12,36(x2)
  1012a4:	02d12023          	sw	x13,32(x2)
  1012a8:	00c5a503          	lw	x10,12(x11)
  1012ac:	0085a603          	lw	x12,8(x11)
  1012b0:	0045a683          	lw	x13,4(x11)
  1012b4:	0005a583          	lw	x11,0(x11)
  1012b8:	00a12e23          	sw	x10,28(x2)
  1012bc:	00c12c23          	sw	x12,24(x2)
  1012c0:	00d12a23          	sw	x13,20(x2)
  1012c4:	00b12823          	sw	x11,16(x2)
  1012c8:	00104537          	lui	x10,0x104
  1012cc:	e6850593          	addi	x11,x10,-408 # 103e68 <.Lanon.463b8e1712595053e4e5ae8ec20c28a1.228>
  1012d0:	00c10513          	addi	x10,x2,12
  1012d4:	01010613          	addi	x12,x2,16
  1012d8:	00000097          	auipc	x1,0x0
  1012dc:	198080e7          	jalr	x1,408(x1) # 101470 <_ZN4core3fmt5write17hc4cfb234790a7690E>
  1012e0:	02c12083          	lw	x1,44(x2)
  1012e4:	03010113          	addi	x2,x2,48
  1012e8:	00008067          	jalr	x0,0(x1)

001012ec <_ZN50_$LT$$RF$mut$u20$W$u20$as$u20$core..fmt..Write$GT$9write_str17hde60f293b224711bE>:
  1012ec:	00052503          	lw	x10,0(x10)
  1012f0:	00000317          	auipc	x6,0x0
  1012f4:	81430067          	jalr	x0,-2028(x6) # 100b04 <_ZN68_$LT$core..fmt..builders..PadAdapter$u20$as$u20$core..fmt..Write$GT$9write_str17ha6988927d00e3584E>

001012f8 <_ZN50_$LT$$RF$mut$u20$W$u20$as$u20$core..fmt..Write$GT$10write_char17h81e19d9ba080d817E>:
  1012f8:	ff010113          	addi	x2,x2,-16
  1012fc:	00112623          	sw	x1,12(x2)
  101300:	00052503          	lw	x10,0(x10)
  101304:	00058613          	addi	x12,x11,0
  101308:	08000593          	addi	x11,x0,128
  10130c:	00012423          	sw	x0,8(x2)
  101310:	02b67263          	bgeu	x12,x11,101334 <_ZN50_$LT$$RF$mut$u20$W$u20$as$u20$core..fmt..Write$GT$10write_char17h81e19d9ba080d817E+0x3c>
  101314:	00810593          	addi	x11,x2,8
  101318:	00c10423          	sb	x12,8(x2)
  10131c:	00100613          	addi	x12,x0,1
  101320:	fffff097          	auipc	x1,0xfffff
  101324:	7e4080e7          	jalr	x1,2020(x1) # 100b04 <_ZN68_$LT$core..fmt..builders..PadAdapter$u20$as$u20$core..fmt..Write$GT$9write_str17ha6988927d00e3584E>
  101328:	00c12083          	lw	x1,12(x2)
  10132c:	01010113          	addi	x2,x2,16
  101330:	00008067          	jalr	x0,0(x1)
  101334:	00b65593          	srli	x11,x12,0xb
  101338:	02059c63          	bne	x11,x0,101370 <_ZN50_$LT$$RF$mut$u20$W$u20$as$u20$core..fmt..Write$GT$10write_char17h81e19d9ba080d817E+0x78>
  10133c:	00810593          	addi	x11,x2,8
  101340:	00665693          	srli	x13,x12,0x6
  101344:	0c06e693          	ori	x13,x13,192
  101348:	00d10423          	sb	x13,8(x2)
  10134c:	03f67613          	andi	x12,x12,63
  101350:	08066613          	ori	x12,x12,128
  101354:	00c104a3          	sb	x12,9(x2)
  101358:	00200613          	addi	x12,x0,2
  10135c:	fffff097          	auipc	x1,0xfffff
  101360:	7a8080e7          	jalr	x1,1960(x1) # 100b04 <_ZN68_$LT$core..fmt..builders..PadAdapter$u20$as$u20$core..fmt..Write$GT$9write_str17ha6988927d00e3584E>
  101364:	00c12083          	lw	x1,12(x2)
  101368:	01010113          	addi	x2,x2,16
  10136c:	00008067          	jalr	x0,0(x1)
  101370:	01065693          	srli	x13,x12,0x10
  101374:	00810593          	addi	x11,x2,8
  101378:	04069263          	bne	x13,x0,1013bc <_ZN50_$LT$$RF$mut$u20$W$u20$as$u20$core..fmt..Write$GT$10write_char17h81e19d9ba080d817E+0xc4>
  10137c:	00c65693          	srli	x13,x12,0xc
  101380:	0e06e693          	ori	x13,x13,224
  101384:	00d10423          	sb	x13,8(x2)
  101388:	00665693          	srli	x13,x12,0x6
  10138c:	03f6f693          	andi	x13,x13,63
  101390:	0806e693          	ori	x13,x13,128
  101394:	00d104a3          	sb	x13,9(x2)
  101398:	03f67613          	andi	x12,x12,63
  10139c:	08066613          	ori	x12,x12,128
  1013a0:	00c10523          	sb	x12,10(x2)
  1013a4:	00300613          	addi	x12,x0,3
  1013a8:	fffff097          	auipc	x1,0xfffff
  1013ac:	75c080e7          	jalr	x1,1884(x1) # 100b04 <_ZN68_$LT$core..fmt..builders..PadAdapter$u20$as$u20$core..fmt..Write$GT$9write_str17ha6988927d00e3584E>
  1013b0:	00c12083          	lw	x1,12(x2)
  1013b4:	01010113          	addi	x2,x2,16
  1013b8:	00008067          	jalr	x0,0(x1)
  1013bc:	01265693          	srli	x13,x12,0x12
  1013c0:	0f06e693          	ori	x13,x13,240
  1013c4:	00d10423          	sb	x13,8(x2)
  1013c8:	00c65693          	srli	x13,x12,0xc
  1013cc:	03f6f693          	andi	x13,x13,63
  1013d0:	0806e693          	ori	x13,x13,128
  1013d4:	00d104a3          	sb	x13,9(x2)
  1013d8:	00665693          	srli	x13,x12,0x6
  1013dc:	03f6f693          	andi	x13,x13,63
  1013e0:	0806e693          	ori	x13,x13,128
  1013e4:	00d10523          	sb	x13,10(x2)
  1013e8:	03f67613          	andi	x12,x12,63
  1013ec:	08066613          	ori	x12,x12,128
  1013f0:	00c105a3          	sb	x12,11(x2)
  1013f4:	00400613          	addi	x12,x0,4
  1013f8:	fffff097          	auipc	x1,0xfffff
  1013fc:	70c080e7          	jalr	x1,1804(x1) # 100b04 <_ZN68_$LT$core..fmt..builders..PadAdapter$u20$as$u20$core..fmt..Write$GT$9write_str17ha6988927d00e3584E>
  101400:	00c12083          	lw	x1,12(x2)
  101404:	01010113          	addi	x2,x2,16
  101408:	00008067          	jalr	x0,0(x1)

0010140c <_ZN50_$LT$$RF$mut$u20$W$u20$as$u20$core..fmt..Write$GT$9write_fmt17h591443bb385a1d13E>:
  10140c:	fd010113          	addi	x2,x2,-48
  101410:	02112623          	sw	x1,44(x2)
  101414:	00052503          	lw	x10,0(x10)
  101418:	0145a603          	lw	x12,20(x11)
  10141c:	0105a683          	lw	x13,16(x11)
  101420:	00a12623          	sw	x10,12(x2)
  101424:	02c12223          	sw	x12,36(x2)
  101428:	02d12023          	sw	x13,32(x2)
  10142c:	00c5a503          	lw	x10,12(x11)
  101430:	0085a603          	lw	x12,8(x11)
  101434:	0045a683          	lw	x13,4(x11)
  101438:	0005a583          	lw	x11,0(x11)
  10143c:	00a12e23          	sw	x10,28(x2)
  101440:	00c12c23          	sw	x12,24(x2)
  101444:	00d12a23          	sw	x13,20(x2)
  101448:	00b12823          	sw	x11,16(x2)
  10144c:	00104537          	lui	x10,0x104
  101450:	e6850593          	addi	x11,x10,-408 # 103e68 <.Lanon.463b8e1712595053e4e5ae8ec20c28a1.228>
  101454:	00c10513          	addi	x10,x2,12
  101458:	01010613          	addi	x12,x2,16
  10145c:	00000097          	auipc	x1,0x0
  101460:	014080e7          	jalr	x1,20(x1) # 101470 <_ZN4core3fmt5write17hc4cfb234790a7690E>
  101464:	02c12083          	lw	x1,44(x2)
  101468:	03010113          	addi	x2,x2,48
  10146c:	00008067          	jalr	x0,0(x1)

00101470 <_ZN4core3fmt5write17hc4cfb234790a7690E>:
  101470:	fa010113          	addi	x2,x2,-96
  101474:	04112e23          	sw	x1,92(x2)
  101478:	04812c23          	sw	x8,88(x2)
  10147c:	04912a23          	sw	x9,84(x2)
  101480:	05212823          	sw	x18,80(x2)
  101484:	05312623          	sw	x19,76(x2)
  101488:	05412423          	sw	x20,72(x2)
  10148c:	05512223          	sw	x21,68(x2)
  101490:	05612023          	sw	x22,64(x2)
  101494:	03712e23          	sw	x23,60(x2)
  101498:	03812c23          	sw	x24,56(x2)
  10149c:	03912a23          	sw	x25,52(x2)
  1014a0:	03a12823          	sw	x26,48(x2)
  1014a4:	00060413          	addi	x8,x12,0
  1014a8:	00012423          	sw	x0,8(x2)
  1014ac:	02000613          	addi	x12,x0,32
  1014b0:	00c12623          	sw	x12,12(x2)
  1014b4:	00300613          	addi	x12,x0,3
  1014b8:	02c10423          	sb	x12,40(x2)
  1014bc:	00842483          	lw	x9,8(x8)
  1014c0:	00012823          	sw	x0,16(x2)
  1014c4:	00012c23          	sw	x0,24(x2)
  1014c8:	02a12023          	sw	x10,32(x2)
  1014cc:	02b12223          	sw	x11,36(x2)
  1014d0:	16048463          	beq	x9,x0,101638 <_ZN4core3fmt5write17hc4cfb234790a7690E+0x1c8>
  1014d4:	00c42603          	lw	x12,12(x8)
  1014d8:	00442a03          	lw	x20,4(x8)
  1014dc:	00042983          	lw	x19,0(x8)
  1014e0:	000a0a93          	addi	x21,x20,0
  1014e4:	00ca6463          	bltu	x20,x12,1014ec <_ZN4core3fmt5write17hc4cfb234790a7690E+0x7c>
  1014e8:	00060a93          	addi	x21,x12,0
  1014ec:	1c0a8c63          	beq	x21,x0,1016c4 <_ZN4core3fmt5write17hc4cfb234790a7690E+0x254>
  1014f0:	0009a683          	lw	x13,0(x19)
  1014f4:	0049a603          	lw	x12,4(x19)
  1014f8:	00c5a703          	lw	x14,12(x11)
  1014fc:	00068593          	addi	x11,x13,0
  101500:	000700e7          	jalr	x1,0(x14)
  101504:	1e051663          	bne	x10,x0,1016f0 <_ZN4core3fmt5write17hc4cfb234790a7690E+0x280>
  101508:	01042c83          	lw	x25,16(x8)
  10150c:	01442b03          	lw	x22,20(x8)
  101510:	00c98d13          	addi	x26,x19,12
  101514:	01048413          	addi	x8,x9,16
  101518:	00810913          	addi	x18,x2,8
  10151c:	00200b93          	addi	x23,x0,2
  101520:	00101537          	lui	x10,0x101
  101524:	8e850c13          	addi	x24,x10,-1816 # 1008e8 <_ZN4core3ops8function6FnOnce9call_once17hf95a512840697715E>
  101528:	000a8493          	addi	x9,x21,0
  10152c:	ff442503          	lw	x10,-12(x8)
  101530:	00a12623          	sw	x10,12(x2)
  101534:	00c40503          	lb	x10,12(x8)
  101538:	02a10423          	sb	x10,40(x2)
  10153c:	ff842503          	lw	x10,-8(x8)
  101540:	00a12423          	sw	x10,8(x2)
  101544:	00442603          	lw	x12,4(x8)
  101548:	00842503          	lw	x10,8(x8)
  10154c:	02060463          	beq	x12,x0,101574 <_ZN4core3fmt5write17hc4cfb234790a7690E+0x104>
  101550:	00000593          	addi	x11,x0,0
  101554:	03760663          	beq	x12,x23,101580 <_ZN4core3fmt5write17hc4cfb234790a7690E+0x110>
  101558:	1d657e63          	bgeu	x10,x22,101734 <_ZN4core3fmt5write17hc4cfb234790a7690E+0x2c4>
  10155c:	00351513          	slli	x10,x10,0x3
  101560:	00ac8533          	add	x10,x25,x10
  101564:	00452583          	lw	x11,4(x10)
  101568:	01859a63          	bne	x11,x24,10157c <_ZN4core3fmt5write17hc4cfb234790a7690E+0x10c>
  10156c:	00052503          	lw	x10,0(x10)
  101570:	00052503          	lw	x10,0(x10)
  101574:	00100593          	addi	x11,x0,1
  101578:	0080006f          	jal	x0,101580 <_ZN4core3fmt5write17hc4cfb234790a7690E+0x110>
  10157c:	00000593          	addi	x11,x0,0
  101580:	00b12823          	sw	x11,16(x2)
  101584:	00a12a23          	sw	x10,20(x2)
  101588:	ffc42603          	lw	x12,-4(x8)
  10158c:	00042503          	lw	x10,0(x8)
  101590:	02060463          	beq	x12,x0,1015b8 <_ZN4core3fmt5write17hc4cfb234790a7690E+0x148>
  101594:	00000593          	addi	x11,x0,0
  101598:	03760263          	beq	x12,x23,1015bc <_ZN4core3fmt5write17hc4cfb234790a7690E+0x14c>
  10159c:	19657c63          	bgeu	x10,x22,101734 <_ZN4core3fmt5write17hc4cfb234790a7690E+0x2c4>
  1015a0:	00351513          	slli	x10,x10,0x3
  1015a4:	00ac8533          	add	x10,x25,x10
  1015a8:	00452583          	lw	x11,4(x10)
  1015ac:	07859663          	bne	x11,x24,101618 <_ZN4core3fmt5write17hc4cfb234790a7690E+0x1a8>
  1015b0:	00052503          	lw	x10,0(x10)
  1015b4:	00052503          	lw	x10,0(x10)
  1015b8:	00100593          	addi	x11,x0,1
  1015bc:	00b12c23          	sw	x11,24(x2)
  1015c0:	00a12e23          	sw	x10,28(x2)
  1015c4:	ff042503          	lw	x10,-16(x8)
  1015c8:	07657263          	bgeu	x10,x22,10162c <_ZN4core3fmt5write17hc4cfb234790a7690E+0x1bc>
  1015cc:	00351513          	slli	x10,x10,0x3
  1015d0:	00ac85b3          	add	x11,x25,x10
  1015d4:	0005a503          	lw	x10,0(x11)
  1015d8:	0045a603          	lw	x12,4(x11)
  1015dc:	00090593          	addi	x11,x18,0
  1015e0:	000600e7          	jalr	x1,0(x12)
  1015e4:	10051663          	bne	x10,x0,1016f0 <_ZN4core3fmt5write17hc4cfb234790a7690E+0x280>
  1015e8:	fff48493          	addi	x9,x9,-1
  1015ec:	0c048e63          	beq	x9,x0,1016c8 <_ZN4core3fmt5write17hc4cfb234790a7690E+0x258>
  1015f0:	02412683          	lw	x13,36(x2)
  1015f4:	02012503          	lw	x10,32(x2)
  1015f8:	ffcd2583          	lw	x11,-4(x26)
  1015fc:	000d2603          	lw	x12,0(x26)
  101600:	00c6a683          	lw	x13,12(x13)
  101604:	008d0d13          	addi	x26,x26,8
  101608:	02040413          	addi	x8,x8,32
  10160c:	000680e7          	jalr	x1,0(x13)
  101610:	f0050ee3          	beq	x10,x0,10152c <_ZN4core3fmt5write17hc4cfb234790a7690E+0xbc>
  101614:	0dc0006f          	jal	x0,1016f0 <_ZN4core3fmt5write17hc4cfb234790a7690E+0x280>
  101618:	00000593          	addi	x11,x0,0
  10161c:	00b12c23          	sw	x11,24(x2)
  101620:	00a12e23          	sw	x10,28(x2)
  101624:	ff042503          	lw	x10,-16(x8)
  101628:	fb6562e3          	bltu	x10,x22,1015cc <_ZN4core3fmt5write17hc4cfb234790a7690E+0x15c>
  10162c:	001045b7          	lui	x11,0x104
  101630:	e9c58613          	addi	x12,x11,-356 # 103e9c <.Lanon.463b8e1712595053e4e5ae8ec20c28a1.230>
  101634:	1080006f          	jal	x0,10173c <_ZN4core3fmt5write17hc4cfb234790a7690E+0x2cc>
  101638:	01042483          	lw	x9,16(x8)
  10163c:	01442603          	lw	x12,20(x8)
  101640:	00442a03          	lw	x20,4(x8)
  101644:	00042983          	lw	x19,0(x8)
  101648:	000a0a93          	addi	x21,x20,0
  10164c:	00ca6463          	bltu	x20,x12,101654 <_ZN4core3fmt5write17hc4cfb234790a7690E+0x1e4>
  101650:	00060a93          	addi	x21,x12,0
  101654:	060a8863          	beq	x21,x0,1016c4 <_ZN4core3fmt5write17hc4cfb234790a7690E+0x254>
  101658:	0009a683          	lw	x13,0(x19)
  10165c:	0049a603          	lw	x12,4(x19)
  101660:	00c5a703          	lw	x14,12(x11)
  101664:	00068593          	addi	x11,x13,0
  101668:	000700e7          	jalr	x1,0(x14)
  10166c:	08051263          	bne	x10,x0,1016f0 <_ZN4core3fmt5write17hc4cfb234790a7690E+0x280>
  101670:	00448493          	addi	x9,x9,4
  101674:	00c98b13          	addi	x22,x19,12
  101678:	00810913          	addi	x18,x2,8
  10167c:	000a8413          	addi	x8,x21,0
  101680:	0004a603          	lw	x12,0(x9)
  101684:	ffc4a503          	lw	x10,-4(x9)
  101688:	00090593          	addi	x11,x18,0
  10168c:	000600e7          	jalr	x1,0(x12)
  101690:	06051063          	bne	x10,x0,1016f0 <_ZN4core3fmt5write17hc4cfb234790a7690E+0x280>
  101694:	fff40413          	addi	x8,x8,-1
  101698:	02040863          	beq	x8,x0,1016c8 <_ZN4core3fmt5write17hc4cfb234790a7690E+0x258>
  10169c:	02412683          	lw	x13,36(x2)
  1016a0:	02012503          	lw	x10,32(x2)
  1016a4:	ffcb2583          	lw	x11,-4(x22)
  1016a8:	000b2603          	lw	x12,0(x22)
  1016ac:	00c6a683          	lw	x13,12(x13)
  1016b0:	00848493          	addi	x9,x9,8
  1016b4:	008b0b13          	addi	x22,x22,8
  1016b8:	000680e7          	jalr	x1,0(x13)
  1016bc:	fc0502e3          	beq	x10,x0,101680 <_ZN4core3fmt5write17hc4cfb234790a7690E+0x210>
  1016c0:	0300006f          	jal	x0,1016f0 <_ZN4core3fmt5write17hc4cfb234790a7690E+0x280>
  1016c4:	00000a93          	addi	x21,x0,0
  1016c8:	034af863          	bgeu	x21,x20,1016f8 <_ZN4core3fmt5write17hc4cfb234790a7690E+0x288>
  1016cc:	02012503          	lw	x10,32(x2)
  1016d0:	02412683          	lw	x13,36(x2)
  1016d4:	003a9593          	slli	x11,x21,0x3
  1016d8:	00b98633          	add	x12,x19,x11
  1016dc:	00062583          	lw	x11,0(x12)
  1016e0:	00462603          	lw	x12,4(x12)
  1016e4:	00c6a683          	lw	x13,12(x13)
  1016e8:	000680e7          	jalr	x1,0(x13)
  1016ec:	00050663          	beq	x10,x0,1016f8 <_ZN4core3fmt5write17hc4cfb234790a7690E+0x288>
  1016f0:	00100513          	addi	x10,x0,1
  1016f4:	0080006f          	jal	x0,1016fc <_ZN4core3fmt5write17hc4cfb234790a7690E+0x28c>
  1016f8:	00000513          	addi	x10,x0,0
  1016fc:	03012d03          	lw	x26,48(x2)
  101700:	03412c83          	lw	x25,52(x2)
  101704:	03812c03          	lw	x24,56(x2)
  101708:	03c12b83          	lw	x23,60(x2)
  10170c:	04012b03          	lw	x22,64(x2)
  101710:	04412a83          	lw	x21,68(x2)
  101714:	04812a03          	lw	x20,72(x2)
  101718:	04c12983          	lw	x19,76(x2)
  10171c:	05012903          	lw	x18,80(x2)
  101720:	05412483          	lw	x9,84(x2)
  101724:	05812403          	lw	x8,88(x2)
  101728:	05c12083          	lw	x1,92(x2)
  10172c:	06010113          	addi	x2,x2,96
  101730:	00008067          	jalr	x0,0(x1)
  101734:	001045b7          	lui	x11,0x104
  101738:	eac58613          	addi	x12,x11,-340 # 103eac <.Lanon.463b8e1712595053e4e5ae8ec20c28a1.231>
  10173c:	000b0593          	addi	x11,x22,0
  101740:	fffff097          	auipc	x1,0xfffff
  101744:	324080e7          	jalr	x1,804(x1) # 100a64 <_ZN4core9panicking18panic_bounds_check17h1271d016dbbb83a7E>
  101748:	c0001073          	unimp

0010174c <_ZN4core3fmt9Formatter12pad_integral17he2541bb2ad863cd8E>:
  10174c:	fc010113          	addi	x2,x2,-64
  101750:	02112e23          	sw	x1,60(x2)
  101754:	02812c23          	sw	x8,56(x2)
  101758:	02912a23          	sw	x9,52(x2)
  10175c:	03212823          	sw	x18,48(x2)
  101760:	03312623          	sw	x19,44(x2)
  101764:	03412423          	sw	x20,40(x2)
  101768:	03512223          	sw	x21,36(x2)
  10176c:	03612023          	sw	x22,32(x2)
  101770:	01712e23          	sw	x23,28(x2)
  101774:	01812c23          	sw	x24,24(x2)
  101778:	01912a23          	sw	x25,20(x2)
  10177c:	01a12823          	sw	x26,16(x2)
  101780:	01b12623          	sw	x27,12(x2)
  101784:	00078993          	addi	x19,x15,0
  101788:	00070913          	addi	x18,x14,0
  10178c:	00068a93          	addi	x21,x13,0
  101790:	00050413          	addi	x8,x10,0
  101794:	06058863          	beq	x11,x0,101804 <_ZN4core3fmt9Formatter12pad_integral17he2541bb2ad863cd8E+0xb8>
  101798:	00042503          	lw	x10,0(x8)
  10179c:	00157593          	andi	x11,x10,1
  1017a0:	00110a37          	lui	x20,0x110
  1017a4:	00058463          	beq	x11,x0,1017ac <_ZN4core3fmt9Formatter12pad_integral17he2541bb2ad863cd8E+0x60>
  1017a8:	02b00a13          	addi	x20,x0,43
  1017ac:	01358cb3          	add	x25,x11,x19
  1017b0:	00457593          	andi	x11,x10,4
  1017b4:	06058263          	beq	x11,x0,101818 <_ZN4core3fmt9Formatter12pad_integral17he2541bb2ad863cd8E+0xcc>
  1017b8:	00000593          	addi	x11,x0,0
  1017bc:	020a8663          	beq	x21,x0,1017e8 <_ZN4core3fmt9Formatter12pad_integral17he2541bb2ad863cd8E+0x9c>
  1017c0:	000a8693          	addi	x13,x21,0
  1017c4:	00060713          	addi	x14,x12,0
  1017c8:	00074783          	lbu	x15,0(x14)
  1017cc:	00170713          	addi	x14,x14,1
  1017d0:	0c07f793          	andi	x15,x15,192
  1017d4:	f8078793          	addi	x15,x15,-128
  1017d8:	0017b793          	sltiu	x15,x15,1
  1017dc:	fff68693          	addi	x13,x13,-1
  1017e0:	00f585b3          	add	x11,x11,x15
  1017e4:	fe0692e3          	bne	x13,x0,1017c8 <_ZN4core3fmt9Formatter12pad_integral17he2541bb2ad863cd8E+0x7c>
  1017e8:	015c86b3          	add	x13,x25,x21
  1017ec:	40b68cb3          	sub	x25,x13,x11
  1017f0:	00060b13          	addi	x22,x12,0
  1017f4:	00842583          	lw	x11,8(x8)
  1017f8:	00100d93          	addi	x27,x0,1
  1017fc:	03b58663          	beq	x11,x27,101828 <_ZN4core3fmt9Formatter12pad_integral17he2541bb2ad863cd8E+0xdc>
  101800:	06c0006f          	jal	x0,10186c <_ZN4core3fmt9Formatter12pad_integral17he2541bb2ad863cd8E+0x120>
  101804:	00042503          	lw	x10,0(x8)
  101808:	00198c93          	addi	x25,x19,1
  10180c:	02d00a13          	addi	x20,x0,45
  101810:	00457593          	andi	x11,x10,4
  101814:	fa0592e3          	bne	x11,x0,1017b8 <_ZN4core3fmt9Formatter12pad_integral17he2541bb2ad863cd8E+0x6c>
  101818:	00000b13          	addi	x22,x0,0
  10181c:	00842583          	lw	x11,8(x8)
  101820:	00100d93          	addi	x27,x0,1
  101824:	05b59463          	bne	x11,x27,10186c <_ZN4core3fmt9Formatter12pad_integral17he2541bb2ad863cd8E+0x120>
  101828:	00c42d03          	lw	x26,12(x8)
  10182c:	05acf063          	bgeu	x25,x26,10186c <_ZN4core3fmt9Formatter12pad_integral17he2541bb2ad863cd8E+0x120>
  101830:	00857513          	andi	x10,x10,8
  101834:	0e051263          	bne	x10,x0,101918 <_ZN4core3fmt9Formatter12pad_integral17he2541bb2ad863cd8E+0x1cc>
  101838:	02044503          	lbu	x10,32(x8)
  10183c:	00100593          	addi	x11,x0,1
  101840:	00300693          	addi	x13,x0,3
  101844:	00100613          	addi	x12,x0,1
  101848:	00d50463          	beq	x10,x13,101850 <_ZN4core3fmt9Formatter12pad_integral17he2541bb2ad863cd8E+0x104>
  10184c:	00050613          	addi	x12,x10,0
  101850:	00367613          	andi	x12,x12,3
  101854:	419d0533          	sub	x10,x26,x25
  101858:	12c5c463          	blt	x11,x12,101980 <_ZN4core3fmt9Formatter12pad_integral17he2541bb2ad863cd8E+0x234>
  10185c:	12061663          	bne	x12,x0,101988 <_ZN4core3fmt9Formatter12pad_integral17he2541bb2ad863cd8E+0x23c>
  101860:	00050c13          	addi	x24,x10,0
  101864:	00000513          	addi	x10,x0,0
  101868:	1440006f          	jal	x0,1019ac <_ZN4core3fmt9Formatter12pad_integral17he2541bb2ad863cd8E+0x260>
  10186c:	00040513          	addi	x10,x8,0
  101870:	000a0593          	addi	x11,x20,0 # 110000 <_sidata+0xb528>
  101874:	000b0613          	addi	x12,x22,0
  101878:	000a8693          	addi	x13,x21,0
  10187c:	00000097          	auipc	x1,0x0
  101880:	264080e7          	jalr	x1,612(x1) # 101ae0 <_ZN4core3fmt9Formatter12pad_integral12write_prefix17hf0f18c8717655380E>
  101884:	04050263          	beq	x10,x0,1018c8 <_ZN4core3fmt9Formatter12pad_integral17he2541bb2ad863cd8E+0x17c>
  101888:	000d8513          	addi	x10,x27,0
  10188c:	00c12d83          	lw	x27,12(x2)
  101890:	01012d03          	lw	x26,16(x2)
  101894:	01412c83          	lw	x25,20(x2)
  101898:	01812c03          	lw	x24,24(x2)
  10189c:	01c12b83          	lw	x23,28(x2)
  1018a0:	02012b03          	lw	x22,32(x2)
  1018a4:	02412a83          	lw	x21,36(x2)
  1018a8:	02812a03          	lw	x20,40(x2)
  1018ac:	02c12983          	lw	x19,44(x2)
  1018b0:	03012903          	lw	x18,48(x2)
  1018b4:	03412483          	lw	x9,52(x2)
  1018b8:	03812403          	lw	x8,56(x2)
  1018bc:	03c12083          	lw	x1,60(x2)
  1018c0:	04010113          	addi	x2,x2,64
  1018c4:	00008067          	jalr	x0,0(x1)
  1018c8:	01c42583          	lw	x11,28(x8)
  1018cc:	01842503          	lw	x10,24(x8)
  1018d0:	00c5a783          	lw	x15,12(x11)
  1018d4:	00090593          	addi	x11,x18,0
  1018d8:	00098613          	addi	x12,x19,0
  1018dc:	00c12d83          	lw	x27,12(x2)
  1018e0:	01012d03          	lw	x26,16(x2)
  1018e4:	01412c83          	lw	x25,20(x2)
  1018e8:	01812c03          	lw	x24,24(x2)
  1018ec:	01c12b83          	lw	x23,28(x2)
  1018f0:	02012b03          	lw	x22,32(x2)
  1018f4:	02412a83          	lw	x21,36(x2)
  1018f8:	02812a03          	lw	x20,40(x2)
  1018fc:	02c12983          	lw	x19,44(x2)
  101900:	03012903          	lw	x18,48(x2)
  101904:	03412483          	lw	x9,52(x2)
  101908:	03812403          	lw	x8,56(x2)
  10190c:	03c12083          	lw	x1,60(x2)
  101910:	04010113          	addi	x2,x2,64
  101914:	00078067          	jalr	x0,0(x15)
  101918:	00442b83          	lw	x23,4(x8)
  10191c:	03000513          	addi	x10,x0,48
  101920:	02044c03          	lbu	x24,32(x8)
  101924:	00a42223          	sw	x10,4(x8)
  101928:	00100d93          	addi	x27,x0,1
  10192c:	03b40023          	sb	x27,32(x8)
  101930:	00040513          	addi	x10,x8,0
  101934:	000a0593          	addi	x11,x20,0
  101938:	000b0613          	addi	x12,x22,0
  10193c:	000a8693          	addi	x13,x21,0
  101940:	00000097          	auipc	x1,0x0
  101944:	1a0080e7          	jalr	x1,416(x1) # 101ae0 <_ZN4core3fmt9Formatter12pad_integral12write_prefix17hf0f18c8717655380E>
  101948:	f40510e3          	bne	x10,x0,101888 <_ZN4core3fmt9Formatter12pad_integral17he2541bb2ad863cd8E+0x13c>
  10194c:	02044503          	lbu	x10,32(x8)
  101950:	00100593          	addi	x11,x0,1
  101954:	00300693          	addi	x13,x0,3
  101958:	00100613          	addi	x12,x0,1
  10195c:	00d50463          	beq	x10,x13,101964 <_ZN4core3fmt9Formatter12pad_integral17he2541bb2ad863cd8E+0x218>
  101960:	00050613          	addi	x12,x10,0
  101964:	00367613          	andi	x12,x12,3
  101968:	419d0533          	sub	x10,x26,x25
  10196c:	02c5c263          	blt	x11,x12,101990 <_ZN4core3fmt9Formatter12pad_integral17he2541bb2ad863cd8E+0x244>
  101970:	02061463          	bne	x12,x0,101998 <_ZN4core3fmt9Formatter12pad_integral17he2541bb2ad863cd8E+0x24c>
  101974:	00050a93          	addi	x21,x10,0
  101978:	00000513          	addi	x10,x0,0
  10197c:	0d00006f          	jal	x0,101a4c <_ZN4core3fmt9Formatter12pad_integral17he2541bb2ad863cd8E+0x300>
  101980:	00300593          	addi	x11,x0,3
  101984:	00b61e63          	bne	x12,x11,1019a0 <_ZN4core3fmt9Formatter12pad_integral17he2541bb2ad863cd8E+0x254>
  101988:	00000c13          	addi	x24,x0,0
  10198c:	0200006f          	jal	x0,1019ac <_ZN4core3fmt9Formatter12pad_integral17he2541bb2ad863cd8E+0x260>
  101990:	00300593          	addi	x11,x0,3
  101994:	0ab61663          	bne	x12,x11,101a40 <_ZN4core3fmt9Formatter12pad_integral17he2541bb2ad863cd8E+0x2f4>
  101998:	00000a93          	addi	x21,x0,0
  10199c:	0b00006f          	jal	x0,101a4c <_ZN4core3fmt9Formatter12pad_integral17he2541bb2ad863cd8E+0x300>
  1019a0:	00150593          	addi	x11,x10,1
  1019a4:	00155513          	srli	x10,x10,0x1
  1019a8:	0015dc13          	srli	x24,x11,0x1
  1019ac:	00150493          	addi	x9,x10,1
  1019b0:	fff48493          	addi	x9,x9,-1
  1019b4:	02048063          	beq	x9,x0,1019d4 <_ZN4core3fmt9Formatter12pad_integral17he2541bb2ad863cd8E+0x288>
  1019b8:	01c42603          	lw	x12,28(x8)
  1019bc:	01842503          	lw	x10,24(x8)
  1019c0:	00442583          	lw	x11,4(x8)
  1019c4:	01062603          	lw	x12,16(x12)
  1019c8:	000600e7          	jalr	x1,0(x12)
  1019cc:	fe0502e3          	beq	x10,x0,1019b0 <_ZN4core3fmt9Formatter12pad_integral17he2541bb2ad863cd8E+0x264>
  1019d0:	0a00006f          	jal	x0,101a70 <_ZN4core3fmt9Formatter12pad_integral17he2541bb2ad863cd8E+0x324>
  1019d4:	00442b83          	lw	x23,4(x8)
  1019d8:	00040513          	addi	x10,x8,0
  1019dc:	000a0593          	addi	x11,x20,0
  1019e0:	000b0613          	addi	x12,x22,0
  1019e4:	000a8693          	addi	x13,x21,0
  1019e8:	00000097          	auipc	x1,0x0
  1019ec:	0f8080e7          	jalr	x1,248(x1) # 101ae0 <_ZN4core3fmt9Formatter12pad_integral12write_prefix17hf0f18c8717655380E>
  1019f0:	00100d93          	addi	x27,x0,1
  1019f4:	e8051ae3          	bne	x10,x0,101888 <_ZN4core3fmt9Formatter12pad_integral17he2541bb2ad863cd8E+0x13c>
  1019f8:	01c42583          	lw	x11,28(x8)
  1019fc:	01842503          	lw	x10,24(x8)
  101a00:	00c5a683          	lw	x13,12(x11)
  101a04:	00090593          	addi	x11,x18,0
  101a08:	00098613          	addi	x12,x19,0
  101a0c:	000680e7          	jalr	x1,0(x13)
  101a10:	e6051ce3          	bne	x10,x0,101888 <_ZN4core3fmt9Formatter12pad_integral17he2541bb2ad863cd8E+0x13c>
  101a14:	01842903          	lw	x18,24(x8)
  101a18:	01c42403          	lw	x8,28(x8)
  101a1c:	001c0493          	addi	x9,x24,1
  101a20:	fff48493          	addi	x9,x9,-1
  101a24:	0a048263          	beq	x9,x0,101ac8 <_ZN4core3fmt9Formatter12pad_integral17he2541bb2ad863cd8E+0x37c>
  101a28:	01042603          	lw	x12,16(x8)
  101a2c:	00090513          	addi	x10,x18,0
  101a30:	000b8593          	addi	x11,x23,0
  101a34:	000600e7          	jalr	x1,0(x12)
  101a38:	fe0504e3          	beq	x10,x0,101a20 <_ZN4core3fmt9Formatter12pad_integral17he2541bb2ad863cd8E+0x2d4>
  101a3c:	e4dff06f          	jal	x0,101888 <_ZN4core3fmt9Formatter12pad_integral17he2541bb2ad863cd8E+0x13c>
  101a40:	00150593          	addi	x11,x10,1
  101a44:	00155513          	srli	x10,x10,0x1
  101a48:	0015da93          	srli	x21,x11,0x1
  101a4c:	00150493          	addi	x9,x10,1
  101a50:	fff48493          	addi	x9,x9,-1
  101a54:	02048263          	beq	x9,x0,101a78 <_ZN4core3fmt9Formatter12pad_integral17he2541bb2ad863cd8E+0x32c>
  101a58:	01c42603          	lw	x12,28(x8)
  101a5c:	01842503          	lw	x10,24(x8)
  101a60:	00442583          	lw	x11,4(x8)
  101a64:	01062603          	lw	x12,16(x12)
  101a68:	000600e7          	jalr	x1,0(x12)
  101a6c:	fe0502e3          	beq	x10,x0,101a50 <_ZN4core3fmt9Formatter12pad_integral17he2541bb2ad863cd8E+0x304>
  101a70:	00100d93          	addi	x27,x0,1
  101a74:	e15ff06f          	jal	x0,101888 <_ZN4core3fmt9Formatter12pad_integral17he2541bb2ad863cd8E+0x13c>
  101a78:	01c42583          	lw	x11,28(x8)
  101a7c:	00442a03          	lw	x20,4(x8)
  101a80:	01842503          	lw	x10,24(x8)
  101a84:	00c5a683          	lw	x13,12(x11)
  101a88:	00090593          	addi	x11,x18,0
  101a8c:	00098613          	addi	x12,x19,0
  101a90:	000680e7          	jalr	x1,0(x13)
  101a94:	00100d93          	addi	x27,x0,1
  101a98:	de0518e3          	bne	x10,x0,101888 <_ZN4core3fmt9Formatter12pad_integral17he2541bb2ad863cd8E+0x13c>
  101a9c:	01842903          	lw	x18,24(x8)
  101aa0:	01c42983          	lw	x19,28(x8)
  101aa4:	001a8493          	addi	x9,x21,1
  101aa8:	fff48493          	addi	x9,x9,-1
  101aac:	02048263          	beq	x9,x0,101ad0 <_ZN4core3fmt9Formatter12pad_integral17he2541bb2ad863cd8E+0x384>
  101ab0:	0109a603          	lw	x12,16(x19)
  101ab4:	00090513          	addi	x10,x18,0
  101ab8:	000a0593          	addi	x11,x20,0
  101abc:	000600e7          	jalr	x1,0(x12)
  101ac0:	fe0504e3          	beq	x10,x0,101aa8 <_ZN4core3fmt9Formatter12pad_integral17he2541bb2ad863cd8E+0x35c>
  101ac4:	dc5ff06f          	jal	x0,101888 <_ZN4core3fmt9Formatter12pad_integral17he2541bb2ad863cd8E+0x13c>
  101ac8:	00000d93          	addi	x27,x0,0
  101acc:	dbdff06f          	jal	x0,101888 <_ZN4core3fmt9Formatter12pad_integral17he2541bb2ad863cd8E+0x13c>
  101ad0:	00000d93          	addi	x27,x0,0
  101ad4:	01742223          	sw	x23,4(x8)
  101ad8:	03840023          	sb	x24,32(x8)
  101adc:	dadff06f          	jal	x0,101888 <_ZN4core3fmt9Formatter12pad_integral17he2541bb2ad863cd8E+0x13c>

00101ae0 <_ZN4core3fmt9Formatter12pad_integral12write_prefix17hf0f18c8717655380E>:
  101ae0:	ff010113          	addi	x2,x2,-16
  101ae4:	00112623          	sw	x1,12(x2)
  101ae8:	00812423          	sw	x8,8(x2)
  101aec:	00912223          	sw	x9,4(x2)
  101af0:	01212023          	sw	x18,0(x2)
  101af4:	00110737          	lui	x14,0x110
  101af8:	00068913          	addi	x18,x13,0
  101afc:	00060493          	addi	x9,x12,0
  101b00:	00050413          	addi	x8,x10,0
  101b04:	02e58063          	beq	x11,x14,101b24 <_ZN4core3fmt9Formatter12pad_integral12write_prefix17hf0f18c8717655380E+0x44>
  101b08:	01c42603          	lw	x12,28(x8)
  101b0c:	01842503          	lw	x10,24(x8)
  101b10:	01062603          	lw	x12,16(x12)
  101b14:	000600e7          	jalr	x1,0(x12)
  101b18:	00050593          	addi	x11,x10,0
  101b1c:	00100513          	addi	x10,x0,1
  101b20:	02059c63          	bne	x11,x0,101b58 <_ZN4core3fmt9Formatter12pad_integral12write_prefix17hf0f18c8717655380E+0x78>
  101b24:	02048863          	beq	x9,x0,101b54 <_ZN4core3fmt9Formatter12pad_integral12write_prefix17hf0f18c8717655380E+0x74>
  101b28:	01c42583          	lw	x11,28(x8)
  101b2c:	01842503          	lw	x10,24(x8)
  101b30:	00c5a783          	lw	x15,12(x11)
  101b34:	00048593          	addi	x11,x9,0
  101b38:	00090613          	addi	x12,x18,0
  101b3c:	00012903          	lw	x18,0(x2)
  101b40:	00412483          	lw	x9,4(x2)
  101b44:	00812403          	lw	x8,8(x2)
  101b48:	00c12083          	lw	x1,12(x2)
  101b4c:	01010113          	addi	x2,x2,16
  101b50:	00078067          	jalr	x0,0(x15)
  101b54:	00000513          	addi	x10,x0,0
  101b58:	00012903          	lw	x18,0(x2)
  101b5c:	00412483          	lw	x9,4(x2)
  101b60:	00812403          	lw	x8,8(x2)
  101b64:	00c12083          	lw	x1,12(x2)
  101b68:	01010113          	addi	x2,x2,16
  101b6c:	00008067          	jalr	x0,0(x1)

00101b70 <_ZN4core3fmt9Formatter3pad17h905844d83a06afd2E>:
  101b70:	fe010113          	addi	x2,x2,-32
  101b74:	00112e23          	sw	x1,28(x2)
  101b78:	00812c23          	sw	x8,24(x2)
  101b7c:	00912a23          	sw	x9,20(x2)
  101b80:	01212823          	sw	x18,16(x2)
  101b84:	01312623          	sw	x19,12(x2)
  101b88:	01412423          	sw	x20,8(x2)
  101b8c:	01512223          	sw	x21,4(x2)
  101b90:	01612023          	sw	x22,0(x2)
  101b94:	00050b13          	addi	x22,x10,0
  101b98:	01052683          	lw	x13,16(x10)
  101b9c:	00852503          	lw	x10,8(x10)
  101ba0:	00060993          	addi	x19,x12,0
  101ba4:	00058913          	addi	x18,x11,0
  101ba8:	fff68593          	addi	x11,x13,-1
  101bac:	00100613          	addi	x12,x0,1
  101bb0:	0015b593          	sltiu	x11,x11,1
  101bb4:	00c51663          	bne	x10,x12,101bc0 <_ZN4core3fmt9Formatter3pad17h905844d83a06afd2E+0x50>
  101bb8:	00059663          	bne	x11,x0,101bc4 <_ZN4core3fmt9Formatter3pad17h905844d83a06afd2E+0x54>
  101bbc:	1700006f          	jal	x0,101d2c <_ZN4core3fmt9Formatter3pad17h905844d83a06afd2E+0x1bc>
  101bc0:	20058e63          	beq	x11,x0,101ddc <_ZN4core3fmt9Formatter3pad17h905844d83a06afd2E+0x26c>
  101bc4:	014b2683          	lw	x13,20(x22)
  101bc8:	fff50513          	addi	x10,x10,-1
  101bcc:	00153813          	sltiu	x16,x10,1
  101bd0:	01390733          	add	x14,x18,x19
  101bd4:	00000593          	addi	x11,x0,0
  101bd8:	0c068863          	beq	x13,x0,101ca8 <_ZN4core3fmt9Formatter3pad17h905844d83a06afd2E+0x138>
  101bdc:	fff00e13          	addi	x28,x0,-1
  101be0:	0e000393          	addi	x7,x0,224
  101be4:	0f000313          	addi	x6,x0,240
  101be8:	001c08b7          	lui	x17,0x1c0
  101bec:	001102b7          	lui	x5,0x110
  101bf0:	00090513          	addi	x10,x18,0
  101bf4:	0440006f          	jal	x0,101c38 <_ZN4core3fmt9Formatter3pad17h905844d83a06afd2E+0xc8>
  101bf8:	00064403          	lbu	x8,0(x12)
  101bfc:	00160493          	addi	x9,x12,1
  101c00:	03f47f93          	andi	x31,x8,63
  101c04:	01279793          	slli	x15,x15,0x12
  101c08:	0117f7b3          	and	x15,x15,x17
  101c0c:	00cf1413          	slli	x8,x30,0xc
  101c10:	006e9613          	slli	x12,x29,0x6
  101c14:	00f467b3          	or	x15,x8,x15
  101c18:	00c7e633          	or	x12,x15,x12
  101c1c:	01f66633          	or	x12,x12,x31
  101c20:	10560463          	beq	x12,x5,101d28 <_ZN4core3fmt9Formatter3pad17h905844d83a06afd2E+0x1b8>
  101c24:	40a48533          	sub	x10,x9,x10
  101c28:	fff68693          	addi	x13,x13,-1
  101c2c:	00b505b3          	add	x11,x10,x11
  101c30:	00048513          	addi	x10,x9,0
  101c34:	06068c63          	beq	x13,x0,101cac <_ZN4core3fmt9Formatter3pad17h905844d83a06afd2E+0x13c>
  101c38:	0ea70863          	beq	x14,x10,101d28 <_ZN4core3fmt9Formatter3pad17h905844d83a06afd2E+0x1b8>
  101c3c:	00050603          	lb	x12,0(x10)
  101c40:	00150493          	addi	x9,x10,1
  101c44:	fece40e3          	blt	x28,x12,101c24 <_ZN4core3fmt9Formatter3pad17h905844d83a06afd2E+0xb4>
  101c48:	0ff67793          	andi	x15,x12,255
  101c4c:	00e48e63          	beq	x9,x14,101c68 <_ZN4core3fmt9Formatter3pad17h905844d83a06afd2E+0xf8>
  101c50:	00154603          	lbu	x12,1(x10)
  101c54:	00250493          	addi	x9,x10,2
  101c58:	03f67f13          	andi	x30,x12,63
  101c5c:	00048613          	addi	x12,x9,0
  101c60:	fc77e2e3          	bltu	x15,x7,101c24 <_ZN4core3fmt9Formatter3pad17h905844d83a06afd2E+0xb4>
  101c64:	0100006f          	jal	x0,101c74 <_ZN4core3fmt9Formatter3pad17h905844d83a06afd2E+0x104>
  101c68:	00000f13          	addi	x30,x0,0
  101c6c:	00070613          	addi	x12,x14,0 # 110000 <_sidata+0xb528>
  101c70:	fa77eae3          	bltu	x15,x7,101c24 <_ZN4core3fmt9Formatter3pad17h905844d83a06afd2E+0xb4>
  101c74:	00e60e63          	beq	x12,x14,101c90 <_ZN4core3fmt9Formatter3pad17h905844d83a06afd2E+0x120>
  101c78:	00064403          	lbu	x8,0(x12)
  101c7c:	00160493          	addi	x9,x12,1
  101c80:	03f47e93          	andi	x29,x8,63
  101c84:	00048613          	addi	x12,x9,0
  101c88:	f867eee3          	bltu	x15,x6,101c24 <_ZN4core3fmt9Formatter3pad17h905844d83a06afd2E+0xb4>
  101c8c:	0100006f          	jal	x0,101c9c <_ZN4core3fmt9Formatter3pad17h905844d83a06afd2E+0x12c>
  101c90:	00000e93          	addi	x29,x0,0
  101c94:	00070613          	addi	x12,x14,0
  101c98:	f867e6e3          	bltu	x15,x6,101c24 <_ZN4core3fmt9Formatter3pad17h905844d83a06afd2E+0xb4>
  101c9c:	f4e61ee3          	bne	x12,x14,101bf8 <_ZN4core3fmt9Formatter3pad17h905844d83a06afd2E+0x88>
  101ca0:	00000f93          	addi	x31,x0,0
  101ca4:	f61ff06f          	jal	x0,101c04 <_ZN4core3fmt9Formatter3pad17h905844d83a06afd2E+0x94>
  101ca8:	00090493          	addi	x9,x18,0
  101cac:	06970e63          	beq	x14,x9,101d28 <_ZN4core3fmt9Formatter3pad17h905844d83a06afd2E+0x1b8>
  101cb0:	00048503          	lb	x10,0(x9)
  101cb4:	fff00613          	addi	x12,x0,-1
  101cb8:	02a65c63          	bge	x12,x10,101cf0 <_ZN4core3fmt9Formatter3pad17h905844d83a06afd2E+0x180>
  101cbc:	0015b513          	sltiu	x10,x11,1
  101cc0:	0135c633          	xor	x12,x11,x19
  101cc4:	00163613          	sltiu	x12,x12,1
  101cc8:	00c56533          	or	x10,x10,x12
  101ccc:	00051c63          	bne	x10,x0,101ce4 <_ZN4core3fmt9Formatter3pad17h905844d83a06afd2E+0x174>
  101cd0:	0535f463          	bgeu	x11,x19,101d18 <_ZN4core3fmt9Formatter3pad17h905844d83a06afd2E+0x1a8>
  101cd4:	00b90533          	add	x10,x18,x11
  101cd8:	00050503          	lb	x10,0(x10)
  101cdc:	fc000613          	addi	x12,x0,-64
  101ce0:	02c54c63          	blt	x10,x12,101d18 <_ZN4core3fmt9Formatter3pad17h905844d83a06afd2E+0x1a8>
  101ce4:	00090513          	addi	x10,x18,0
  101ce8:	02051c63          	bne	x10,x0,101d20 <_ZN4core3fmt9Formatter3pad17h905844d83a06afd2E+0x1b0>
  101cec:	03c0006f          	jal	x0,101d28 <_ZN4core3fmt9Formatter3pad17h905844d83a06afd2E+0x1b8>
  101cf0:	00148613          	addi	x12,x9,1
  101cf4:	0ff57513          	andi	x10,x10,255
  101cf8:	1ee60463          	beq	x12,x14,101ee0 <_ZN4core3fmt9Formatter3pad17h905844d83a06afd2E+0x370>
  101cfc:	0014c683          	lbu	x13,1(x9)
  101d00:	00248613          	addi	x12,x9,2
  101d04:	03f6f693          	andi	x13,x13,63
  101d08:	00669693          	slli	x13,x13,0x6
  101d0c:	0e000793          	addi	x15,x0,224
  101d10:	1ef57063          	bgeu	x10,x15,101ef0 <_ZN4core3fmt9Formatter3pad17h905844d83a06afd2E+0x380>
  101d14:	fa9ff06f          	jal	x0,101cbc <_ZN4core3fmt9Formatter3pad17h905844d83a06afd2E+0x14c>
  101d18:	00000513          	addi	x10,x0,0
  101d1c:	00050663          	beq	x10,x0,101d28 <_ZN4core3fmt9Formatter3pad17h905844d83a06afd2E+0x1b8>
  101d20:	00050913          	addi	x18,x10,0
  101d24:	00058993          	addi	x19,x11,0
  101d28:	0a080a63          	beq	x16,x0,101ddc <_ZN4core3fmt9Formatter3pad17h905844d83a06afd2E+0x26c>
  101d2c:	06098663          	beq	x19,x0,101d98 <_ZN4core3fmt9Formatter3pad17h905844d83a06afd2E+0x228>
  101d30:	00000593          	addi	x11,x0,0
  101d34:	00098513          	addi	x10,x19,0
  101d38:	00090613          	addi	x12,x18,0
  101d3c:	00064683          	lbu	x13,0(x12)
  101d40:	00160613          	addi	x12,x12,1
  101d44:	0c06f693          	andi	x13,x13,192
  101d48:	f8068693          	addi	x13,x13,-128
  101d4c:	0016b693          	sltiu	x13,x13,1
  101d50:	fff50513          	addi	x10,x10,-1
  101d54:	00d585b3          	add	x11,x11,x13
  101d58:	fe0512e3          	bne	x10,x0,101d3c <_ZN4core3fmt9Formatter3pad17h905844d83a06afd2E+0x1cc>
  101d5c:	00cb2503          	lw	x10,12(x22)
  101d60:	40b985b3          	sub	x11,x19,x11
  101d64:	06a5fc63          	bgeu	x11,x10,101ddc <_ZN4core3fmt9Formatter3pad17h905844d83a06afd2E+0x26c>
  101d68:	00000593          	addi	x11,x0,0
  101d6c:	00098613          	addi	x12,x19,0
  101d70:	00090693          	addi	x13,x18,0
  101d74:	0006c703          	lbu	x14,0(x13)
  101d78:	00168693          	addi	x13,x13,1
  101d7c:	0c077713          	andi	x14,x14,192
  101d80:	f8070713          	addi	x14,x14,-128
  101d84:	00173713          	sltiu	x14,x14,1
  101d88:	fff60613          	addi	x12,x12,-1
  101d8c:	00e585b3          	add	x11,x11,x14
  101d90:	fe0612e3          	bne	x12,x0,101d74 <_ZN4core3fmt9Formatter3pad17h905844d83a06afd2E+0x204>
  101d94:	0100006f          	jal	x0,101da4 <_ZN4core3fmt9Formatter3pad17h905844d83a06afd2E+0x234>
  101d98:	00cb2503          	lw	x10,12(x22)
  101d9c:	00000593          	addi	x11,x0,0
  101da0:	02050e63          	beq	x10,x0,101ddc <_ZN4core3fmt9Formatter3pad17h905844d83a06afd2E+0x26c>
  101da4:	020b4683          	lbu	x13,32(x22)
  101da8:	00000713          	addi	x14,x0,0
  101dac:	00300793          	addi	x15,x0,3
  101db0:	41358633          	sub	x12,x11,x19
  101db4:	00f68463          	beq	x13,x15,101dbc <_ZN4core3fmt9Formatter3pad17h905844d83a06afd2E+0x24c>
  101db8:	00068713          	addi	x14,x13,0
  101dbc:	00377593          	andi	x11,x14,3
  101dc0:	00100693          	addi	x13,x0,1
  101dc4:	00a60533          	add	x10,x12,x10
  101dc8:	04b6c863          	blt	x13,x11,101e18 <_ZN4core3fmt9Formatter3pad17h905844d83a06afd2E+0x2a8>
  101dcc:	04059a63          	bne	x11,x0,101e20 <_ZN4core3fmt9Formatter3pad17h905844d83a06afd2E+0x2b0>
  101dd0:	00050a93          	addi	x21,x10,0
  101dd4:	00000513          	addi	x10,x0,0
  101dd8:	05c0006f          	jal	x0,101e34 <_ZN4core3fmt9Formatter3pad17h905844d83a06afd2E+0x2c4>
  101ddc:	01cb2583          	lw	x11,28(x22)
  101de0:	018b2503          	lw	x10,24(x22)
  101de4:	00c5a783          	lw	x15,12(x11)
  101de8:	00090593          	addi	x11,x18,0
  101dec:	00098613          	addi	x12,x19,0
  101df0:	00012b03          	lw	x22,0(x2)
  101df4:	00412a83          	lw	x21,4(x2)
  101df8:	00812a03          	lw	x20,8(x2)
  101dfc:	00c12983          	lw	x19,12(x2)
  101e00:	01012903          	lw	x18,16(x2)
  101e04:	01412483          	lw	x9,20(x2)
  101e08:	01812403          	lw	x8,24(x2)
  101e0c:	01c12083          	lw	x1,28(x2)
  101e10:	02010113          	addi	x2,x2,32
  101e14:	00078067          	jalr	x0,0(x15)
  101e18:	00300613          	addi	x12,x0,3
  101e1c:	00c59663          	bne	x11,x12,101e28 <_ZN4core3fmt9Formatter3pad17h905844d83a06afd2E+0x2b8>
  101e20:	00000a93          	addi	x21,x0,0
  101e24:	0100006f          	jal	x0,101e34 <_ZN4core3fmt9Formatter3pad17h905844d83a06afd2E+0x2c4>
  101e28:	00150593          	addi	x11,x10,1
  101e2c:	00155513          	srli	x10,x10,0x1
  101e30:	0015da93          	srli	x21,x11,0x1
  101e34:	00150493          	addi	x9,x10,1
  101e38:	fff48493          	addi	x9,x9,-1
  101e3c:	02048263          	beq	x9,x0,101e60 <_ZN4core3fmt9Formatter3pad17h905844d83a06afd2E+0x2f0>
  101e40:	01cb2603          	lw	x12,28(x22)
  101e44:	018b2503          	lw	x10,24(x22)
  101e48:	004b2583          	lw	x11,4(x22)
  101e4c:	01062603          	lw	x12,16(x12)
  101e50:	000600e7          	jalr	x1,0(x12)
  101e54:	fe0502e3          	beq	x10,x0,101e38 <_ZN4core3fmt9Formatter3pad17h905844d83a06afd2E+0x2c8>
  101e58:	00100913          	addi	x18,x0,1
  101e5c:	0580006f          	jal	x0,101eb4 <_ZN4core3fmt9Formatter3pad17h905844d83a06afd2E+0x344>
  101e60:	01cb2583          	lw	x11,28(x22)
  101e64:	004b2a03          	lw	x20,4(x22)
  101e68:	018b2503          	lw	x10,24(x22)
  101e6c:	00c5a683          	lw	x13,12(x11)
  101e70:	00090593          	addi	x11,x18,0
  101e74:	00098613          	addi	x12,x19,0
  101e78:	000680e7          	jalr	x1,0(x13)
  101e7c:	00100913          	addi	x18,x0,1
  101e80:	02051a63          	bne	x10,x0,101eb4 <_ZN4core3fmt9Formatter3pad17h905844d83a06afd2E+0x344>
  101e84:	018b2983          	lw	x19,24(x22)
  101e88:	01cb2403          	lw	x8,28(x22)
  101e8c:	001a8493          	addi	x9,x21,1
  101e90:	fff48493          	addi	x9,x9,-1
  101e94:	00048e63          	beq	x9,x0,101eb0 <_ZN4core3fmt9Formatter3pad17h905844d83a06afd2E+0x340>
  101e98:	01042603          	lw	x12,16(x8)
  101e9c:	00098513          	addi	x10,x19,0
  101ea0:	000a0593          	addi	x11,x20,0
  101ea4:	000600e7          	jalr	x1,0(x12)
  101ea8:	fe0504e3          	beq	x10,x0,101e90 <_ZN4core3fmt9Formatter3pad17h905844d83a06afd2E+0x320>
  101eac:	0080006f          	jal	x0,101eb4 <_ZN4core3fmt9Formatter3pad17h905844d83a06afd2E+0x344>
  101eb0:	00000913          	addi	x18,x0,0
  101eb4:	00090513          	addi	x10,x18,0
  101eb8:	00012b03          	lw	x22,0(x2)
  101ebc:	00412a83          	lw	x21,4(x2)
  101ec0:	00812a03          	lw	x20,8(x2)
  101ec4:	00c12983          	lw	x19,12(x2)
  101ec8:	01012903          	lw	x18,16(x2)
  101ecc:	01412483          	lw	x9,20(x2)
  101ed0:	01812403          	lw	x8,24(x2)
  101ed4:	01c12083          	lw	x1,28(x2)
  101ed8:	02010113          	addi	x2,x2,32
  101edc:	00008067          	jalr	x0,0(x1)
  101ee0:	00000693          	addi	x13,x0,0
  101ee4:	00070613          	addi	x12,x14,0
  101ee8:	0e000793          	addi	x15,x0,224
  101eec:	dcf568e3          	bltu	x10,x15,101cbc <_ZN4core3fmt9Formatter3pad17h905844d83a06afd2E+0x14c>
  101ef0:	00e60e63          	beq	x12,x14,101f0c <_ZN4core3fmt9Formatter3pad17h905844d83a06afd2E+0x39c>
  101ef4:	00064783          	lbu	x15,0(x12)
  101ef8:	00160613          	addi	x12,x12,1
  101efc:	03f7f793          	andi	x15,x15,63
  101f00:	0f000493          	addi	x9,x0,240
  101f04:	00957c63          	bgeu	x10,x9,101f1c <_ZN4core3fmt9Formatter3pad17h905844d83a06afd2E+0x3ac>
  101f08:	db5ff06f          	jal	x0,101cbc <_ZN4core3fmt9Formatter3pad17h905844d83a06afd2E+0x14c>
  101f0c:	00000793          	addi	x15,x0,0
  101f10:	00070613          	addi	x12,x14,0
  101f14:	0f000493          	addi	x9,x0,240
  101f18:	da9562e3          	bltu	x10,x9,101cbc <_ZN4core3fmt9Formatter3pad17h905844d83a06afd2E+0x14c>
  101f1c:	00d7e6b3          	or	x13,x15,x13
  101f20:	00e60863          	beq	x12,x14,101f30 <_ZN4core3fmt9Formatter3pad17h905844d83a06afd2E+0x3c0>
  101f24:	00064603          	lbu	x12,0(x12)
  101f28:	03f67613          	andi	x12,x12,63
  101f2c:	0080006f          	jal	x0,101f34 <_ZN4core3fmt9Formatter3pad17h905844d83a06afd2E+0x3c4>
  101f30:	00000613          	addi	x12,x0,0
  101f34:	01251513          	slli	x10,x10,0x12
  101f38:	001c0737          	lui	x14,0x1c0
  101f3c:	00e57533          	and	x10,x10,x14
  101f40:	00669693          	slli	x13,x13,0x6
  101f44:	00a6e533          	or	x10,x13,x10
  101f48:	00c56533          	or	x10,x10,x12
  101f4c:	00110637          	lui	x12,0x110
  101f50:	dcc50ce3          	beq	x10,x12,101d28 <_ZN4core3fmt9Formatter3pad17h905844d83a06afd2E+0x1b8>
  101f54:	d69ff06f          	jal	x0,101cbc <_ZN4core3fmt9Formatter3pad17h905844d83a06afd2E+0x14c>

00101f58 <_ZN41_$LT$char$u20$as$u20$core..fmt..Debug$GT$3fmt17h4ddbdfd1830b9798E>:
  101f58:	fd010113          	addi	x2,x2,-48
  101f5c:	02112623          	sw	x1,44(x2)
  101f60:	02812423          	sw	x8,40(x2)
  101f64:	02912223          	sw	x9,36(x2)
  101f68:	03212023          	sw	x18,32(x2)
  101f6c:	01312e23          	sw	x19,28(x2)
  101f70:	01412c23          	sw	x20,24(x2)
  101f74:	01512a23          	sw	x21,20(x2)
  101f78:	01612823          	sw	x22,16(x2)
  101f7c:	01712623          	sw	x23,12(x2)
  101f80:	01812423          	sw	x24,8(x2)
  101f84:	01912223          	sw	x25,4(x2)
  101f88:	00058413          	addi	x8,x11,0
  101f8c:	01c5a583          	lw	x11,28(x11)
  101f90:	01842603          	lw	x12,24(x8)
  101f94:	0105a683          	lw	x13,16(x11)
  101f98:	00050493          	addi	x9,x10,0
  101f9c:	02700593          	addi	x11,x0,39
  101fa0:	00060513          	addi	x10,x12,0 # 110000 <_sidata+0xb528>
  101fa4:	000680e7          	jalr	x1,0(x13)
  101fa8:	02050e63          	beq	x10,x0,101fe4 <_ZN41_$LT$char$u20$as$u20$core..fmt..Debug$GT$3fmt17h4ddbdfd1830b9798E+0x8c>
  101fac:	00100513          	addi	x10,x0,1
  101fb0:	00412c83          	lw	x25,4(x2)
  101fb4:	00812c03          	lw	x24,8(x2)
  101fb8:	00c12b83          	lw	x23,12(x2)
  101fbc:	01012b03          	lw	x22,16(x2)
  101fc0:	01412a83          	lw	x21,20(x2)
  101fc4:	01812a03          	lw	x20,24(x2)
  101fc8:	01c12983          	lw	x19,28(x2)
  101fcc:	02012903          	lw	x18,32(x2)
  101fd0:	02412483          	lw	x9,36(x2)
  101fd4:	02812403          	lw	x8,40(x2)
  101fd8:	02c12083          	lw	x1,44(x2)
  101fdc:	03010113          	addi	x2,x2,48
  101fe0:	00008067          	jalr	x0,0(x1)
  101fe4:	0004aa03          	lw	x20,0(x9)
  101fe8:	02100513          	addi	x10,x0,33
  101fec:	00200493          	addi	x9,x0,2
  101ff0:	03454263          	blt	x10,x20,102014 <_ZN41_$LT$char$u20$as$u20$core..fmt..Debug$GT$3fmt17h4ddbdfd1830b9798E+0xbc>
  101ff4:	00900513          	addi	x10,x0,9
  101ff8:	04aa0e63          	beq	x20,x10,102054 <_ZN41_$LT$char$u20$as$u20$core..fmt..Debug$GT$3fmt17h4ddbdfd1830b9798E+0xfc>
  101ffc:	00a00513          	addi	x10,x0,10
  102000:	04aa0e63          	beq	x20,x10,10205c <_ZN41_$LT$char$u20$as$u20$core..fmt..Debug$GT$3fmt17h4ddbdfd1830b9798E+0x104>
  102004:	00d00513          	addi	x10,x0,13
  102008:	02aa1263          	bne	x20,x10,10202c <_ZN41_$LT$char$u20$as$u20$core..fmt..Debug$GT$3fmt17h4ddbdfd1830b9798E+0xd4>
  10200c:	07200a13          	addi	x20,x0,114
  102010:	0500006f          	jal	x0,102060 <_ZN41_$LT$char$u20$as$u20$core..fmt..Debug$GT$3fmt17h4ddbdfd1830b9798E+0x108>
  102014:	02200513          	addi	x10,x0,34
  102018:	04aa0463          	beq	x20,x10,102060 <_ZN41_$LT$char$u20$as$u20$core..fmt..Debug$GT$3fmt17h4ddbdfd1830b9798E+0x108>
  10201c:	02700513          	addi	x10,x0,39
  102020:	04aa0063          	beq	x20,x10,102060 <_ZN41_$LT$char$u20$as$u20$core..fmt..Debug$GT$3fmt17h4ddbdfd1830b9798E+0x108>
  102024:	05c00513          	addi	x10,x0,92
  102028:	02aa0c63          	beq	x20,x10,102060 <_ZN41_$LT$char$u20$as$u20$core..fmt..Debug$GT$3fmt17h4ddbdfd1830b9798E+0x108>
  10202c:	000a0513          	addi	x10,x20,0
  102030:	00001097          	auipc	x1,0x1
  102034:	690080e7          	jalr	x1,1680(x1) # 1036c0 <_ZN4core7unicode12unicode_data15grapheme_extend6lookup17hf174abb294badd09E>
  102038:	14051263          	bne	x10,x0,10217c <_ZN41_$LT$char$u20$as$u20$core..fmt..Debug$GT$3fmt17h4ddbdfd1830b9798E+0x224>
  10203c:	000a0513          	addi	x10,x20,0
  102040:	00001097          	auipc	x1,0x1
  102044:	b60080e7          	jalr	x1,-1184(x1) # 102ba0 <_ZN4core7unicode9printable12is_printable17haabb8d6b04d23617E>
  102048:	12050a63          	beq	x10,x0,10217c <_ZN41_$LT$char$u20$as$u20$core..fmt..Debug$GT$3fmt17h4ddbdfd1830b9798E+0x224>
  10204c:	00100493          	addi	x9,x0,1
  102050:	0100006f          	jal	x0,102060 <_ZN41_$LT$char$u20$as$u20$core..fmt..Debug$GT$3fmt17h4ddbdfd1830b9798E+0x108>
  102054:	07400a13          	addi	x20,x0,116
  102058:	0080006f          	jal	x0,102060 <_ZN41_$LT$char$u20$as$u20$core..fmt..Debug$GT$3fmt17h4ddbdfd1830b9798E+0x108>
  10205c:	06e00a13          	addi	x20,x0,110
  102060:	00200a93          	addi	x21,x0,2
  102064:	00100b13          	addi	x22,x0,1
  102068:	00a00b93          	addi	x23,x0,10
  10206c:	00300c13          	addi	x24,x0,3
  102070:	00400c93          	addi	x25,x0,4
  102074:	01c0006f          	jal	x0,102090 <_ZN41_$LT$char$u20$as$u20$core..fmt..Debug$GT$3fmt17h4ddbdfd1830b9798E+0x138>
  102078:	00100493          	addi	x9,x0,1
  10207c:	01c42603          	lw	x12,28(x8)
  102080:	01842503          	lw	x10,24(x8)
  102084:	01062603          	lw	x12,16(x12)
  102088:	000600e7          	jalr	x1,0(x12)
  10208c:	f20510e3          	bne	x10,x0,101fac <_ZN41_$LT$char$u20$as$u20$core..fmt..Debug$GT$3fmt17h4ddbdfd1830b9798E+0x54>
  102090:	009b4a63          	blt	x22,x9,1020a4 <_ZN41_$LT$char$u20$as$u20$core..fmt..Debug$GT$3fmt17h4ddbdfd1830b9798E+0x14c>
  102094:	0a048263          	beq	x9,x0,102138 <_ZN41_$LT$char$u20$as$u20$core..fmt..Debug$GT$3fmt17h4ddbdfd1830b9798E+0x1e0>
  102098:	00000493          	addi	x9,x0,0
  10209c:	000a0593          	addi	x11,x20,0
  1020a0:	fddff06f          	jal	x0,10207c <_ZN41_$LT$char$u20$as$u20$core..fmt..Debug$GT$3fmt17h4ddbdfd1830b9798E+0x124>
  1020a4:	05c00593          	addi	x11,x0,92
  1020a8:	fd5488e3          	beq	x9,x21,102078 <_ZN41_$LT$char$u20$as$u20$core..fmt..Debug$GT$3fmt17h4ddbdfd1830b9798E+0x120>
  1020ac:	0ff9f513          	andi	x10,x19,255
  1020b0:	00aacc63          	blt	x21,x10,1020c8 <_ZN41_$LT$char$u20$as$u20$core..fmt..Debug$GT$3fmt17h4ddbdfd1830b9798E+0x170>
  1020b4:	08050263          	beq	x10,x0,102138 <_ZN41_$LT$char$u20$as$u20$core..fmt..Debug$GT$3fmt17h4ddbdfd1830b9798E+0x1e0>
  1020b8:	03651463          	bne	x10,x22,1020e0 <_ZN41_$LT$char$u20$as$u20$core..fmt..Debug$GT$3fmt17h4ddbdfd1830b9798E+0x188>
  1020bc:	f009f993          	andi	x19,x19,-256
  1020c0:	07d00593          	addi	x11,x0,125
  1020c4:	06c0006f          	jal	x0,102130 <_ZN41_$LT$char$u20$as$u20$core..fmt..Debug$GT$3fmt17h4ddbdfd1830b9798E+0x1d8>
  1020c8:	05850263          	beq	x10,x24,10210c <_ZN41_$LT$char$u20$as$u20$core..fmt..Debug$GT$3fmt17h4ddbdfd1830b9798E+0x1b4>
  1020cc:	05951863          	bne	x10,x25,10211c <_ZN41_$LT$char$u20$as$u20$core..fmt..Debug$GT$3fmt17h4ddbdfd1830b9798E+0x1c4>
  1020d0:	f009f513          	andi	x10,x19,-256
  1020d4:	00356993          	ori	x19,x10,3
  1020d8:	07500593          	addi	x11,x0,117
  1020dc:	0540006f          	jal	x0,102130 <_ZN41_$LT$char$u20$as$u20$core..fmt..Debug$GT$3fmt17h4ddbdfd1830b9798E+0x1d8>
  1020e0:	00291513          	slli	x10,x18,0x2
  1020e4:	01c57513          	andi	x10,x10,28
  1020e8:	00aa5533          	srl	x10,x20,x10
  1020ec:	00f57513          	andi	x10,x10,15
  1020f0:	03000593          	addi	x11,x0,48
  1020f4:	01756463          	bltu	x10,x23,1020fc <_ZN41_$LT$char$u20$as$u20$core..fmt..Debug$GT$3fmt17h4ddbdfd1830b9798E+0x1a4>
  1020f8:	05700593          	addi	x11,x0,87
  1020fc:	00a585b3          	add	x11,x11,x10
  102100:	02090463          	beq	x18,x0,102128 <_ZN41_$LT$char$u20$as$u20$core..fmt..Debug$GT$3fmt17h4ddbdfd1830b9798E+0x1d0>
  102104:	fff90913          	addi	x18,x18,-1
  102108:	0280006f          	jal	x0,102130 <_ZN41_$LT$char$u20$as$u20$core..fmt..Debug$GT$3fmt17h4ddbdfd1830b9798E+0x1d8>
  10210c:	f009f513          	andi	x10,x19,-256
  102110:	00256993          	ori	x19,x10,2
  102114:	07b00593          	addi	x11,x0,123
  102118:	0180006f          	jal	x0,102130 <_ZN41_$LT$char$u20$as$u20$core..fmt..Debug$GT$3fmt17h4ddbdfd1830b9798E+0x1d8>
  10211c:	f009f513          	andi	x10,x19,-256
  102120:	00456993          	ori	x19,x10,4
  102124:	00c0006f          	jal	x0,102130 <_ZN41_$LT$char$u20$as$u20$core..fmt..Debug$GT$3fmt17h4ddbdfd1830b9798E+0x1d8>
  102128:	f009f513          	andi	x10,x19,-256
  10212c:	00156993          	ori	x19,x10,1
  102130:	00300493          	addi	x9,x0,3
  102134:	f49ff06f          	jal	x0,10207c <_ZN41_$LT$char$u20$as$u20$core..fmt..Debug$GT$3fmt17h4ddbdfd1830b9798E+0x124>
  102138:	01c42583          	lw	x11,28(x8)
  10213c:	01842503          	lw	x10,24(x8)
  102140:	0105a783          	lw	x15,16(x11)
  102144:	02700593          	addi	x11,x0,39
  102148:	00412c83          	lw	x25,4(x2)
  10214c:	00812c03          	lw	x24,8(x2)
  102150:	00c12b83          	lw	x23,12(x2)
  102154:	01012b03          	lw	x22,16(x2)
  102158:	01412a83          	lw	x21,20(x2)
  10215c:	01812a03          	lw	x20,24(x2)
  102160:	01c12983          	lw	x19,28(x2)
  102164:	02012903          	lw	x18,32(x2)
  102168:	02412483          	lw	x9,36(x2)
  10216c:	02812403          	lw	x8,40(x2)
  102170:	02c12083          	lw	x1,44(x2)
  102174:	03010113          	addi	x2,x2,48
  102178:	00078067          	jalr	x0,0(x15)
  10217c:	001a6513          	ori	x10,x20,1
  102180:	00155593          	srli	x11,x10,0x1
  102184:	00b56533          	or	x10,x10,x11
  102188:	00255593          	srli	x11,x10,0x2
  10218c:	00b56533          	or	x10,x10,x11
  102190:	00455593          	srli	x11,x10,0x4
  102194:	00b56533          	or	x10,x10,x11
  102198:	00855593          	srli	x11,x10,0x8
  10219c:	00b56533          	or	x10,x10,x11
  1021a0:	01055593          	srli	x11,x10,0x10
  1021a4:	00b56533          	or	x10,x10,x11
  1021a8:	fff54513          	xori	x10,x10,-1
  1021ac:	00155593          	srli	x11,x10,0x1
  1021b0:	55555637          	lui	x12,0x55555
  1021b4:	55560613          	addi	x12,x12,1365 # 55555555 <_sstack+0x53555555>
  1021b8:	00c5f5b3          	and	x11,x11,x12
  1021bc:	40b50533          	sub	x10,x10,x11
  1021c0:	333335b7          	lui	x11,0x33333
  1021c4:	33358593          	addi	x11,x11,819 # 33333333 <_sstack+0x31333333>
  1021c8:	00b57633          	and	x12,x10,x11
  1021cc:	00255513          	srli	x10,x10,0x2
  1021d0:	00b57533          	and	x10,x10,x11
  1021d4:	00a60533          	add	x10,x12,x10
  1021d8:	00455593          	srli	x11,x10,0x4
  1021dc:	00b50533          	add	x10,x10,x11
  1021e0:	0f0f15b7          	lui	x11,0xf0f1
  1021e4:	f0f58593          	addi	x11,x11,-241 # f0f0f0f <_sstack+0xd0f0f0f>
  1021e8:	00b57533          	and	x10,x10,x11
  1021ec:	010105b7          	lui	x11,0x1010
  1021f0:	10158593          	addi	x11,x11,257 # 1010101 <__global_pointer$+0xe0f901>
  1021f4:	00001097          	auipc	x1,0x1
  1021f8:	708080e7          	jalr	x1,1800(x1) # 1038fc <__mulsi3>
  1021fc:	01a55513          	srli	x10,x10,0x1a
  102200:	00754913          	xori	x18,x10,7
  102204:	00500993          	addi	x19,x0,5
  102208:	00300493          	addi	x9,x0,3
  10220c:	e55ff06f          	jal	x0,102060 <_ZN41_$LT$char$u20$as$u20$core..fmt..Debug$GT$3fmt17h4ddbdfd1830b9798E+0x108>

00102210 <_ZN4core5slice6memchr19memchr_general_case17h8df678562042220aE>:
  102210:	fe010113          	addi	x2,x2,-32
  102214:	00112e23          	sw	x1,28(x2)
  102218:	00812c23          	sw	x8,24(x2)
  10221c:	00912a23          	sw	x9,20(x2)
  102220:	01212823          	sw	x18,16(x2)
  102224:	01312623          	sw	x19,12(x2)
  102228:	01412423          	sw	x20,8(x2)
  10222c:	01512223          	sw	x21,4(x2)
  102230:	01612023          	sw	x22,0(x2)
  102234:	00060913          	addi	x18,x12,0
  102238:	00058a13          	addi	x20,x11,0
  10223c:	00358593          	addi	x11,x11,3
  102240:	ffc5f593          	andi	x11,x11,-4
  102244:	414585b3          	sub	x11,x11,x20
  102248:	0ff57993          	andi	x19,x10,255
  10224c:	02058c63          	beq	x11,x0,102284 <_ZN4core5slice6memchr19memchr_general_case17h8df678562042220aE+0x74>
  102250:	00090413          	addi	x8,x18,0
  102254:	00b96463          	bltu	x18,x11,10225c <_ZN4core5slice6memchr19memchr_general_case17h8df678562042220aE+0x4c>
  102258:	00058413          	addi	x8,x11,0
  10225c:	02040463          	beq	x8,x0,102284 <_ZN4core5slice6memchr19memchr_general_case17h8df678562042220aE+0x74>
  102260:	00000593          	addi	x11,x0,0
  102264:	00ba0533          	add	x10,x20,x11
  102268:	00054503          	lbu	x10,0(x10)
  10226c:	0f350c63          	beq	x10,x19,102364 <_ZN4core5slice6memchr19memchr_general_case17h8df678562042220aE+0x154>
  102270:	00158593          	addi	x11,x11,1
  102274:	feb418e3          	bne	x8,x11,102264 <_ZN4core5slice6memchr19memchr_general_case17h8df678562042220aE+0x54>
  102278:	ff890a93          	addi	x21,x18,-8
  10227c:	008af863          	bgeu	x21,x8,10228c <_ZN4core5slice6memchr19memchr_general_case17h8df678562042220aE+0x7c>
  102280:	0780006f          	jal	x0,1022f8 <_ZN4core5slice6memchr19memchr_general_case17h8df678562042220aE+0xe8>
  102284:	00000413          	addi	x8,x0,0
  102288:	ff890a93          	addi	x21,x18,-8
  10228c:	feff0537          	lui	x10,0xfeff0
  102290:	eff50b13          	addi	x22,x10,-257 # fefefeff <_sstack+0xfcfefeff>
  102294:	80808537          	lui	x10,0x80808
  102298:	08050493          	addi	x9,x10,128 # 80808080 <_sstack+0x7e808080>
  10229c:	01010537          	lui	x10,0x1010
  1022a0:	10150593          	addi	x11,x10,257 # 1010101 <__global_pointer$+0xe0f901>
  1022a4:	00098513          	addi	x10,x19,0
  1022a8:	00001097          	auipc	x1,0x1
  1022ac:	654080e7          	jalr	x1,1620(x1) # 1038fc <__mulsi3>
  1022b0:	008a05b3          	add	x11,x20,x8
  1022b4:	0005a603          	lw	x12,0(x11)
  1022b8:	0045a583          	lw	x11,4(x11)
  1022bc:	00a64633          	xor	x12,x12,x10
  1022c0:	fff64693          	xori	x13,x12,-1
  1022c4:	01660633          	add	x12,x12,x22
  1022c8:	0096f6b3          	and	x13,x13,x9
  1022cc:	00c6f633          	and	x12,x13,x12
  1022d0:	00a5c5b3          	xor	x11,x11,x10
  1022d4:	fff5c693          	xori	x13,x11,-1
  1022d8:	016585b3          	add	x11,x11,x22
  1022dc:	0096f6b3          	and	x13,x13,x9
  1022e0:	00b6f5b3          	and	x11,x13,x11
  1022e4:	00c5e5b3          	or	x11,x11,x12
  1022e8:	00059663          	bne	x11,x0,1022f4 <_ZN4core5slice6memchr19memchr_general_case17h8df678562042220aE+0xe4>
  1022ec:	00840413          	addi	x8,x8,8
  1022f0:	fc8af0e3          	bgeu	x21,x8,1022b0 <_ZN4core5slice6memchr19memchr_general_case17h8df678562042220aE+0xa0>
  1022f4:	06896c63          	bltu	x18,x8,10236c <_ZN4core5slice6memchr19memchr_general_case17h8df678562042220aE+0x15c>
  1022f8:	01241863          	bne	x8,x18,102308 <_ZN4core5slice6memchr19memchr_general_case17h8df678562042220aE+0xf8>
  1022fc:	00000593          	addi	x11,x0,0
  102300:	00000513          	addi	x10,x0,0
  102304:	0340006f          	jal	x0,102338 <_ZN4core5slice6memchr19memchr_general_case17h8df678562042220aE+0x128>
  102308:	00000613          	addi	x12,x0,0
  10230c:	408905b3          	sub	x11,x18,x8
  102310:	008a0533          	add	x10,x20,x8
  102314:	00c506b3          	add	x13,x10,x12
  102318:	0006c683          	lbu	x13,0(x13)
  10231c:	01368a63          	beq	x13,x19,102330 <_ZN4core5slice6memchr19memchr_general_case17h8df678562042220aE+0x120>
  102320:	00160613          	addi	x12,x12,1
  102324:	fec598e3          	bne	x11,x12,102314 <_ZN4core5slice6memchr19memchr_general_case17h8df678562042220aE+0x104>
  102328:	00000513          	addi	x10,x0,0
  10232c:	00c0006f          	jal	x0,102338 <_ZN4core5slice6memchr19memchr_general_case17h8df678562042220aE+0x128>
  102330:	00100513          	addi	x10,x0,1
  102334:	00060593          	addi	x11,x12,0
  102338:	008585b3          	add	x11,x11,x8
  10233c:	00012b03          	lw	x22,0(x2)
  102340:	00412a83          	lw	x21,4(x2)
  102344:	00812a03          	lw	x20,8(x2)
  102348:	00c12983          	lw	x19,12(x2)
  10234c:	01012903          	lw	x18,16(x2)
  102350:	01412483          	lw	x9,20(x2)
  102354:	01812403          	lw	x8,24(x2)
  102358:	01c12083          	lw	x1,28(x2)
  10235c:	02010113          	addi	x2,x2,32
  102360:	00008067          	jalr	x0,0(x1)
  102364:	00100513          	addi	x10,x0,1
  102368:	fd5ff06f          	jal	x0,10233c <_ZN4core5slice6memchr19memchr_general_case17h8df678562042220aE+0x12c>
  10236c:	00104537          	lui	x10,0x104
  102370:	ebc50613          	addi	x12,x10,-324 # 103ebc <.Lanon.463b8e1712595053e4e5ae8ec20c28a1.244>
  102374:	00040513          	addi	x10,x8,0
  102378:	00090593          	addi	x11,x18,0
  10237c:	00000097          	auipc	x1,0x0
  102380:	00c080e7          	jalr	x1,12(x1) # 102388 <_ZN4core5slice5index26slice_start_index_len_fail17h808ec7d9fb05cfddE>
  102384:	c0001073          	unimp

00102388 <_ZN4core5slice5index26slice_start_index_len_fail17h808ec7d9fb05cfddE>:
  102388:	fc010113          	addi	x2,x2,-64
  10238c:	02112e23          	sw	x1,60(x2)
  102390:	00a12423          	sw	x10,8(x2)
  102394:	00b12623          	sw	x11,12(x2)
  102398:	00810513          	addi	x10,x2,8
  10239c:	02a12423          	sw	x10,40(x2)
  1023a0:	00103537          	lui	x10,0x103
  1023a4:	01450513          	addi	x10,x10,20 # 103014 <_ZN4core3fmt3num3imp52_$LT$impl$u20$core..fmt..Display$u20$for$u20$u32$GT$3fmt17hc564521f9957f2c6E>
  1023a8:	02a12623          	sw	x10,44(x2)
  1023ac:	00c10593          	addi	x11,x2,12
  1023b0:	02b12823          	sw	x11,48(x2)
  1023b4:	02a12a23          	sw	x10,52(x2)
  1023b8:	00104537          	lui	x10,0x104
  1023bc:	f0050513          	addi	x10,x10,-256 # 103f00 <.Lanon.463b8e1712595053e4e5ae8ec20c28a1.249>
  1023c0:	00a12823          	sw	x10,16(x2)
  1023c4:	00200513          	addi	x10,x0,2
  1023c8:	00a12a23          	sw	x10,20(x2)
  1023cc:	00012c23          	sw	x0,24(x2)
  1023d0:	02810593          	addi	x11,x2,40
  1023d4:	02b12023          	sw	x11,32(x2)
  1023d8:	02a12223          	sw	x10,36(x2)
  1023dc:	01010513          	addi	x10,x2,16
  1023e0:	00060593          	addi	x11,x12,0
  1023e4:	ffffe097          	auipc	x1,0xffffe
  1023e8:	6e8080e7          	jalr	x1,1768(x1) # 100acc <_ZN4core9panicking9panic_fmt17h9b4c539136e2bca5E>
  1023ec:	c0001073          	unimp

001023f0 <_ZN4core5slice5index24slice_end_index_len_fail17ha1975a8c2a737844E>:
  1023f0:	fc010113          	addi	x2,x2,-64
  1023f4:	02112e23          	sw	x1,60(x2)
  1023f8:	00a12423          	sw	x10,8(x2)
  1023fc:	00b12623          	sw	x11,12(x2)
  102400:	00810513          	addi	x10,x2,8
  102404:	02a12423          	sw	x10,40(x2)
  102408:	00103537          	lui	x10,0x103
  10240c:	01450513          	addi	x10,x10,20 # 103014 <_ZN4core3fmt3num3imp52_$LT$impl$u20$core..fmt..Display$u20$for$u20$u32$GT$3fmt17hc564521f9957f2c6E>
  102410:	02a12623          	sw	x10,44(x2)
  102414:	00c10593          	addi	x11,x2,12
  102418:	02b12823          	sw	x11,48(x2)
  10241c:	02a12a23          	sw	x10,52(x2)
  102420:	00104537          	lui	x10,0x104
  102424:	f1050513          	addi	x10,x10,-240 # 103f10 <.Lanon.463b8e1712595053e4e5ae8ec20c28a1.251>
  102428:	00a12823          	sw	x10,16(x2)
  10242c:	00200513          	addi	x10,x0,2
  102430:	00a12a23          	sw	x10,20(x2)
  102434:	00012c23          	sw	x0,24(x2)
  102438:	02810593          	addi	x11,x2,40
  10243c:	02b12023          	sw	x11,32(x2)
  102440:	02a12223          	sw	x10,36(x2)
  102444:	01010513          	addi	x10,x2,16
  102448:	00060593          	addi	x11,x12,0
  10244c:	ffffe097          	auipc	x1,0xffffe
  102450:	680080e7          	jalr	x1,1664(x1) # 100acc <_ZN4core9panicking9panic_fmt17h9b4c539136e2bca5E>
  102454:	c0001073          	unimp

00102458 <_ZN4core5slice5index22slice_index_order_fail17hf16c2c526f8af9e8E>:
  102458:	fc010113          	addi	x2,x2,-64
  10245c:	02112e23          	sw	x1,60(x2)
  102460:	00a12423          	sw	x10,8(x2)
  102464:	00b12623          	sw	x11,12(x2)
  102468:	00810513          	addi	x10,x2,8
  10246c:	02a12423          	sw	x10,40(x2)
  102470:	00103537          	lui	x10,0x103
  102474:	01450513          	addi	x10,x10,20 # 103014 <_ZN4core3fmt3num3imp52_$LT$impl$u20$core..fmt..Display$u20$for$u20$u32$GT$3fmt17hc564521f9957f2c6E>
  102478:	02a12623          	sw	x10,44(x2)
  10247c:	00c10593          	addi	x11,x2,12
  102480:	02b12823          	sw	x11,48(x2)
  102484:	02a12a23          	sw	x10,52(x2)
  102488:	00104537          	lui	x10,0x104
  10248c:	f4450513          	addi	x10,x10,-188 # 103f44 <.Lanon.463b8e1712595053e4e5ae8ec20c28a1.254>
  102490:	00a12823          	sw	x10,16(x2)
  102494:	00200513          	addi	x10,x0,2
  102498:	00a12a23          	sw	x10,20(x2)
  10249c:	00012c23          	sw	x0,24(x2)
  1024a0:	02810593          	addi	x11,x2,40
  1024a4:	02b12023          	sw	x11,32(x2)
  1024a8:	02a12223          	sw	x10,36(x2)
  1024ac:	01010513          	addi	x10,x2,16
  1024b0:	00060593          	addi	x11,x12,0
  1024b4:	ffffe097          	auipc	x1,0xffffe
  1024b8:	618080e7          	jalr	x1,1560(x1) # 100acc <_ZN4core9panicking9panic_fmt17h9b4c539136e2bca5E>
  1024bc:	c0001073          	unimp

001024c0 <_ZN4core3str8converts9from_utf817h68971a957e8b8b20E>:
  1024c0:	fd010113          	addi	x2,x2,-48
  1024c4:	02812623          	sw	x8,44(x2)
  1024c8:	02912423          	sw	x9,40(x2)
  1024cc:	03212223          	sw	x18,36(x2)
  1024d0:	03312023          	sw	x19,32(x2)
  1024d4:	01412e23          	sw	x20,28(x2)
  1024d8:	01512c23          	sw	x21,24(x2)
  1024dc:	01612a23          	sw	x22,20(x2)
  1024e0:	01712823          	sw	x23,16(x2)
  1024e4:	01812623          	sw	x24,12(x2)
  1024e8:	01912423          	sw	x25,8(x2)
  1024ec:	01a12223          	sw	x26,4(x2)
  1024f0:	01b12023          	sw	x27,0(x2)
  1024f4:	ff960693          	addi	x13,x12,-7
  1024f8:	00d637b3          	sltu	x15,x12,x13
  1024fc:	00000713          	addi	x14,x0,0
  102500:	00079463          	bne	x15,x0,102508 <_ZN4core3str8converts9from_utf817h68971a957e8b8b20E+0x48>
  102504:	00068713          	addi	x14,x13,0
  102508:	24060863          	beq	x12,x0,102758 <_ZN4core3str8converts9from_utf817h68971a957e8b8b20E+0x298>
  10250c:	00000693          	addi	x13,x0,0
  102510:	00358793          	addi	x15,x11,3
  102514:	ffc7f793          	andi	x15,x15,-4
  102518:	40b78833          	sub	x16,x15,x11
  10251c:	00180793          	addi	x15,x16,1
  102520:	0017bc93          	sltiu	x25,x15,1
  102524:	001047b7          	lui	x15,0x104
  102528:	f5c78893          	addi	x17,x15,-164 # 103f5c <_ZN4core3str11validations15UTF8_CHAR_WIDTH17h36de6081920ffa1eE>
  10252c:	00400293          	addi	x5,x0,4
  102530:	0f400313          	addi	x6,x0,244
  102534:	08000393          	addi	x7,x0,128
  102538:	0f000e13          	addi	x28,x0,240
  10253c:	03000e93          	addi	x29,x0,48
  102540:	00200f13          	addi	x30,x0,2
  102544:	fff00f93          	addi	x31,x0,-1
  102548:	0bf00913          	addi	x18,x0,191
  10254c:	00300b93          	addi	x23,x0,3
  102550:	0ed00b13          	addi	x22,x0,237
  102554:	0e000993          	addi	x19,x0,224
  102558:	0a000a13          	addi	x20,x0,160
  10255c:	00b00a93          	addi	x21,x0,11
  102560:	808087b7          	lui	x15,0x80808
  102564:	08078d93          	addi	x27,x15,128 # 80808080 <_sstack+0x7e808080>
  102568:	00100c13          	addi	x24,x0,1
  10256c:	00c0006f          	jal	x0,102578 <_ZN4core3str8converts9from_utf817h68971a957e8b8b20E+0xb8>
  102570:	00168693          	addi	x13,x13,1
  102574:	1ec6f263          	bgeu	x13,x12,102758 <_ZN4core3str8converts9from_utf817h68971a957e8b8b20E+0x298>
  102578:	00d587b3          	add	x15,x11,x13
  10257c:	0007c783          	lbu	x15,0(x15)
  102580:	01879413          	slli	x8,x15,0x18
  102584:	41845493          	srai	x9,x8,0x18
  102588:	0404ca63          	blt	x9,x0,1025dc <_ZN4core3str8converts9from_utf817h68971a957e8b8b20E+0x11c>
  10258c:	fe0c92e3          	bne	x25,x0,102570 <_ZN4core3str8converts9from_utf817h68971a957e8b8b20E+0xb0>
  102590:	40d807b3          	sub	x15,x16,x13
  102594:	0037f793          	andi	x15,x15,3
  102598:	fc079ce3          	bne	x15,x0,102570 <_ZN4core3str8converts9from_utf817h68971a957e8b8b20E+0xb0>
  10259c:	02e6f263          	bgeu	x13,x14,1025c0 <_ZN4core3str8converts9from_utf817h68971a957e8b8b20E+0x100>
  1025a0:	00d587b3          	add	x15,x11,x13
  1025a4:	0007a403          	lw	x8,0(x15)
  1025a8:	0047a783          	lw	x15,4(x15)
  1025ac:	0087e7b3          	or	x15,x15,x8
  1025b0:	01b7f7b3          	and	x15,x15,x27
  1025b4:	00079663          	bne	x15,x0,1025c0 <_ZN4core3str8converts9from_utf817h68971a957e8b8b20E+0x100>
  1025b8:	00868693          	addi	x13,x13,8
  1025bc:	fee6e2e3          	bltu	x13,x14,1025a0 <_ZN4core3str8converts9from_utf817h68971a957e8b8b20E+0xe0>
  1025c0:	fac6fae3          	bgeu	x13,x12,102574 <_ZN4core3str8converts9from_utf817h68971a957e8b8b20E+0xb4>
  1025c4:	00d587b3          	add	x15,x11,x13
  1025c8:	00078783          	lb	x15,0(x15)
  1025cc:	fa07c4e3          	blt	x15,x0,102574 <_ZN4core3str8converts9from_utf817h68971a957e8b8b20E+0xb4>
  1025d0:	00168693          	addi	x13,x13,1
  1025d4:	fed618e3          	bne	x12,x13,1025c4 <_ZN4core3str8converts9from_utf817h68971a957e8b8b20E+0x104>
  1025d8:	1800006f          	jal	x0,102758 <_ZN4core3str8converts9from_utf817h68971a957e8b8b20E+0x298>
  1025dc:	01178433          	add	x8,x15,x17
  1025e0:	00044403          	lbu	x8,0(x8)
  1025e4:	02540463          	beq	x8,x5,10260c <_ZN4core3str8converts9from_utf817h68971a957e8b8b20E+0x14c>
  1025e8:	05740663          	beq	x8,x23,102634 <_ZN4core3str8converts9from_utf817h68971a957e8b8b20E+0x174>
  1025ec:	19e41463          	bne	x8,x30,102774 <_ZN4core3str8converts9from_utf817h68971a957e8b8b20E+0x2b4>
  1025f0:	00168793          	addi	x15,x13,1
  1025f4:	16c7fa63          	bgeu	x15,x12,102768 <_ZN4core3str8converts9from_utf817h68971a957e8b8b20E+0x2a8>
  1025f8:	00f58433          	add	x8,x11,x15
  1025fc:	00044403          	lbu	x8,0(x8)
  102600:	0c047413          	andi	x8,x8,192
  102604:	14740663          	beq	x8,x7,102750 <_ZN4core3str8converts9from_utf817h68971a957e8b8b20E+0x290>
  102608:	1740006f          	jal	x0,10277c <_ZN4core3str8converts9from_utf817h68971a957e8b8b20E+0x2bc>
  10260c:	00168413          	addi	x8,x13,1
  102610:	14c47c63          	bgeu	x8,x12,102768 <_ZN4core3str8converts9from_utf817h68971a957e8b8b20E+0x2a8>
  102614:	00858433          	add	x8,x11,x8
  102618:	00044403          	lbu	x8,0(x8)
  10261c:	02678e63          	beq	x15,x6,102658 <_ZN4core3str8converts9from_utf817h68971a957e8b8b20E+0x198>
  102620:	05c79a63          	bne	x15,x28,102674 <_ZN4core3str8converts9from_utf817h68971a957e8b8b20E+0x1b4>
  102624:	07040793          	addi	x15,x8,112
  102628:	0ff7f793          	andi	x15,x15,255
  10262c:	07d7e863          	bltu	x15,x29,10269c <_ZN4core3str8converts9from_utf817h68971a957e8b8b20E+0x1dc>
  102630:	14c0006f          	jal	x0,10277c <_ZN4core3str8converts9from_utf817h68971a957e8b8b20E+0x2bc>
  102634:	00168413          	addi	x8,x13,1
  102638:	12c47863          	bgeu	x8,x12,102768 <_ZN4core3str8converts9from_utf817h68971a957e8b8b20E+0x2a8>
  10263c:	00858433          	add	x8,x11,x8
  102640:	00044d03          	lbu	x26,0(x8)
  102644:	09678663          	beq	x15,x22,1026d0 <_ZN4core3str8converts9from_utf817h68971a957e8b8b20E+0x210>
  102648:	0b379263          	bne	x15,x19,1026ec <_ZN4core3str8converts9from_utf817h68971a957e8b8b20E+0x22c>
  10264c:	0e0d7793          	andi	x15,x26,224
  102650:	0f478463          	beq	x15,x20,102738 <_ZN4core3str8converts9from_utf817h68971a957e8b8b20E+0x278>
  102654:	1280006f          	jal	x0,10277c <_ZN4core3str8converts9from_utf817h68971a957e8b8b20E+0x2bc>
  102658:	01841793          	slli	x15,x8,0x18
  10265c:	4187d793          	srai	x15,x15,0x18
  102660:	0007a793          	slti	x15,x15,0
  102664:	09043413          	sltiu	x8,x8,144
  102668:	0087f7b3          	and	x15,x15,x8
  10266c:	02079863          	bne	x15,x0,10269c <_ZN4core3str8converts9from_utf817h68971a957e8b8b20E+0x1dc>
  102670:	10c0006f          	jal	x0,10277c <_ZN4core3str8converts9from_utf817h68971a957e8b8b20E+0x2bc>
  102674:	00f48793          	addi	x15,x9,15
  102678:	0ff7f793          	andi	x15,x15,255
  10267c:	00ff37b3          	sltu	x15,x30,x15
  102680:	01841493          	slli	x9,x8,0x18
  102684:	4184d493          	srai	x9,x9,0x18
  102688:	009fa4b3          	slt	x9,x31,x9
  10268c:	0097e7b3          	or	x15,x15,x9
  102690:	00893433          	sltu	x8,x18,x8
  102694:	00f467b3          	or	x15,x8,x15
  102698:	0e079263          	bne	x15,x0,10277c <_ZN4core3str8converts9from_utf817h68971a957e8b8b20E+0x2bc>
  10269c:	00268793          	addi	x15,x13,2
  1026a0:	0cc7f463          	bgeu	x15,x12,102768 <_ZN4core3str8converts9from_utf817h68971a957e8b8b20E+0x2a8>
  1026a4:	00f587b3          	add	x15,x11,x15
  1026a8:	0007c783          	lbu	x15,0(x15)
  1026ac:	0c07f793          	andi	x15,x15,192
  1026b0:	0c779c63          	bne	x15,x7,102788 <_ZN4core3str8converts9from_utf817h68971a957e8b8b20E+0x2c8>
  1026b4:	00368793          	addi	x15,x13,3
  1026b8:	0ac7f863          	bgeu	x15,x12,102768 <_ZN4core3str8converts9from_utf817h68971a957e8b8b20E+0x2a8>
  1026bc:	00f58433          	add	x8,x11,x15
  1026c0:	00044403          	lbu	x8,0(x8)
  1026c4:	0c047413          	andi	x8,x8,192
  1026c8:	08740463          	beq	x8,x7,102750 <_ZN4core3str8converts9from_utf817h68971a957e8b8b20E+0x290>
  1026cc:	0c40006f          	jal	x0,102790 <_ZN4core3str8converts9from_utf817h68971a957e8b8b20E+0x2d0>
  1026d0:	018d1793          	slli	x15,x26,0x18
  1026d4:	4187d793          	srai	x15,x15,0x18
  1026d8:	0007a793          	slti	x15,x15,0
  1026dc:	0a0d3413          	sltiu	x8,x26,160
  1026e0:	0087f7b3          	and	x15,x15,x8
  1026e4:	04079a63          	bne	x15,x0,102738 <_ZN4core3str8converts9from_utf817h68971a957e8b8b20E+0x278>
  1026e8:	0940006f          	jal	x0,10277c <_ZN4core3str8converts9from_utf817h68971a957e8b8b20E+0x2bc>
  1026ec:	01f48793          	addi	x15,x9,31
  1026f0:	0ff7f413          	andi	x8,x15,255
  1026f4:	018d1793          	slli	x15,x26,0x18
  1026f8:	008aee63          	bltu	x21,x8,102714 <_ZN4core3str8converts9from_utf817h68971a957e8b8b20E+0x254>
  1026fc:	4187d793          	srai	x15,x15,0x18
  102700:	0007a793          	slti	x15,x15,0
  102704:	0c0d3413          	sltiu	x8,x26,192
  102708:	0087f7b3          	and	x15,x15,x8
  10270c:	02079663          	bne	x15,x0,102738 <_ZN4core3str8converts9from_utf817h68971a957e8b8b20E+0x278>
  102710:	06c0006f          	jal	x0,10277c <_ZN4core3str8converts9from_utf817h68971a957e8b8b20E+0x2bc>
  102714:	ffe4f413          	andi	x8,x9,-2
  102718:	01240413          	addi	x8,x8,18
  10271c:	00803433          	sltu	x8,x0,x8
  102720:	4187d793          	srai	x15,x15,0x18
  102724:	00ffa7b3          	slt	x15,x31,x15
  102728:	00f467b3          	or	x15,x8,x15
  10272c:	01a93433          	sltu	x8,x18,x26
  102730:	00f467b3          	or	x15,x8,x15
  102734:	04079463          	bne	x15,x0,10277c <_ZN4core3str8converts9from_utf817h68971a957e8b8b20E+0x2bc>
  102738:	00268793          	addi	x15,x13,2
  10273c:	02c7f663          	bgeu	x15,x12,102768 <_ZN4core3str8converts9from_utf817h68971a957e8b8b20E+0x2a8>
  102740:	00f58433          	add	x8,x11,x15
  102744:	00044403          	lbu	x8,0(x8)
  102748:	0c047413          	andi	x8,x8,192
  10274c:	02741e63          	bne	x8,x7,102788 <_ZN4core3str8converts9from_utf817h68971a957e8b8b20E+0x2c8>
  102750:	00178693          	addi	x13,x15,1
  102754:	e21ff06f          	jal	x0,102574 <_ZN4core3str8converts9from_utf817h68971a957e8b8b20E+0xb4>
  102758:	00000693          	addi	x13,x0,0
  10275c:	00b52223          	sw	x11,4(x10)
  102760:	00c52423          	sw	x12,8(x10)
  102764:	0440006f          	jal	x0,1027a8 <_ZN4core3str8converts9from_utf817h68971a957e8b8b20E+0x2e8>
  102768:	00000593          	addi	x11,x0,0
  10276c:	00000c13          	addi	x24,x0,0
  102770:	0240006f          	jal	x0,102794 <_ZN4core3str8converts9from_utf817h68971a957e8b8b20E+0x2d4>
  102774:	00100593          	addi	x11,x0,1
  102778:	01c0006f          	jal	x0,102794 <_ZN4core3str8converts9from_utf817h68971a957e8b8b20E+0x2d4>
  10277c:	00100593          	addi	x11,x0,1
  102780:	00100c13          	addi	x24,x0,1
  102784:	0100006f          	jal	x0,102794 <_ZN4core3str8converts9from_utf817h68971a957e8b8b20E+0x2d4>
  102788:	00200593          	addi	x11,x0,2
  10278c:	0080006f          	jal	x0,102794 <_ZN4core3str8converts9from_utf817h68971a957e8b8b20E+0x2d4>
  102790:	00300593          	addi	x11,x0,3
  102794:	00859593          	slli	x11,x11,0x8
  102798:	0185e5b3          	or	x11,x11,x24
  10279c:	00d52223          	sw	x13,4(x10)
  1027a0:	00b52423          	sw	x11,8(x10)
  1027a4:	00100693          	addi	x13,x0,1
  1027a8:	00d52023          	sw	x13,0(x10)
  1027ac:	00012d83          	lw	x27,0(x2)
  1027b0:	00412d03          	lw	x26,4(x2)
  1027b4:	00812c83          	lw	x25,8(x2)
  1027b8:	00c12c03          	lw	x24,12(x2)
  1027bc:	01012b83          	lw	x23,16(x2)
  1027c0:	01412b03          	lw	x22,20(x2)
  1027c4:	01812a83          	lw	x21,24(x2)
  1027c8:	01c12a03          	lw	x20,28(x2)
  1027cc:	02012983          	lw	x19,32(x2)
  1027d0:	02412903          	lw	x18,36(x2)
  1027d4:	02812483          	lw	x9,40(x2)
  1027d8:	02c12403          	lw	x8,44(x2)
  1027dc:	03010113          	addi	x2,x2,48
  1027e0:	00008067          	jalr	x0,0(x1)

001027e4 <_ZN4core3str16slice_error_fail17hb3a94a39cc45776aE>:
  1027e4:	f9010113          	addi	x2,x2,-112
  1027e8:	06112623          	sw	x1,108(x2)
  1027ec:	00c12023          	sw	x12,0(x2)
  1027f0:	00d12223          	sw	x13,4(x2)
  1027f4:	10100813          	addi	x16,x0,257
  1027f8:	00100313          	addi	x6,x0,1
  1027fc:	00058393          	addi	x7,x11,0
  102800:	0505e263          	bltu	x11,x16,102844 <_ZN4core3str16slice_error_fail17hb3a94a39cc45776aE+0x60>
  102804:	40b008b3          	sub	x17,x0,x11
  102808:	10000293          	addi	x5,x0,256
  10280c:	fbf00813          	addi	x16,x0,-65
  102810:	00b2f863          	bgeu	x5,x11,102820 <_ZN4core3str16slice_error_fail17hb3a94a39cc45776aE+0x3c>
  102814:	005507b3          	add	x15,x10,x5
  102818:	00078783          	lb	x15,0(x15)
  10281c:	04f84263          	blt	x16,x15,102860 <_ZN4core3str16slice_error_fail17hb3a94a39cc45776aE+0x7c>
  102820:	fff28393          	addi	x7,x5,-1 # 10ffff <_sidata+0xb527>
  102824:	005882b3          	add	x5,x17,x5
  102828:	00703333          	sltu	x6,x0,x7
  10282c:	fff28793          	addi	x15,x5,-1
  102830:	00f037b3          	sltu	x15,x0,x15
  102834:	00f377b3          	and	x15,x6,x15
  102838:	00000313          	addi	x6,x0,0
  10283c:	00038293          	addi	x5,x7,0
  102840:	fc0798e3          	bne	x15,x0,102810 <_ZN4core3str16slice_error_fail17hb3a94a39cc45776aE+0x2c>
  102844:	00a12423          	sw	x10,8(x2)
  102848:	00712623          	sw	x7,12(x2)
  10284c:	02031463          	bne	x6,x0,102874 <_ZN4core3str16slice_error_fail17hb3a94a39cc45776aE+0x90>
  102850:	001047b7          	lui	x15,0x104
  102854:	08c78793          	addi	x15,x15,140 # 10408c <.Lanon.463b8e1712595053e4e5ae8ec20c28a1.313>
  102858:	00500813          	addi	x16,x0,5
  10285c:	0240006f          	jal	x0,102880 <_ZN4core3str16slice_error_fail17hb3a94a39cc45776aE+0x9c>
  102860:	00000313          	addi	x6,x0,0
  102864:	00028393          	addi	x7,x5,0
  102868:	00a12423          	sw	x10,8(x2)
  10286c:	00712623          	sw	x7,12(x2)
  102870:	fe0300e3          	beq	x6,x0,102850 <_ZN4core3str16slice_error_fail17hb3a94a39cc45776aE+0x6c>
  102874:	00000813          	addi	x16,x0,0
  102878:	001047b7          	lui	x15,0x104
  10287c:	c0478793          	addi	x15,x15,-1020 # 103c04 <.Lanon.463b8e1712595053e4e5ae8ec20c28a1.33>
  102880:	00f12823          	sw	x15,16(x2)
  102884:	00c5b8b3          	sltu	x17,x11,x12
  102888:	00d5b7b3          	sltu	x15,x11,x13
  10288c:	00f8e7b3          	or	x15,x17,x15
  102890:	01012a23          	sw	x16,20(x2)
  102894:	04078c63          	beq	x15,x0,1028ec <_ZN4core3str16slice_error_fail17hb3a94a39cc45776aE+0x108>
  102898:	00089463          	bne	x17,x0,1028a0 <_ZN4core3str16slice_error_fail17hb3a94a39cc45776aE+0xbc>
  10289c:	00068613          	addi	x12,x13,0
  1028a0:	02c12023          	sw	x12,32(x2)
  1028a4:	02010513          	addi	x10,x2,32
  1028a8:	04a12023          	sw	x10,64(x2)
  1028ac:	00103537          	lui	x10,0x103
  1028b0:	01450513          	addi	x10,x10,20 # 103014 <_ZN4core3fmt3num3imp52_$LT$impl$u20$core..fmt..Display$u20$for$u20$u32$GT$3fmt17hc564521f9957f2c6E>
  1028b4:	04a12223          	sw	x10,68(x2)
  1028b8:	00810513          	addi	x10,x2,8
  1028bc:	04a12423          	sw	x10,72(x2)
  1028c0:	00103537          	lui	x10,0x103
  1028c4:	59850513          	addi	x10,x10,1432 # 103598 <_ZN44_$LT$$RF$T$u20$as$u20$core..fmt..Display$GT$3fmt17h8e3360572887809bE>
  1028c8:	04a12623          	sw	x10,76(x2)
  1028cc:	01010593          	addi	x11,x2,16
  1028d0:	04b12823          	sw	x11,80(x2)
  1028d4:	04a12a23          	sw	x10,84(x2)
  1028d8:	00104537          	lui	x10,0x104
  1028dc:	0b450513          	addi	x10,x10,180 # 1040b4 <.Lanon.463b8e1712595053e4e5ae8ec20c28a1.316>
  1028e0:	02a12423          	sw	x10,40(x2)
  1028e4:	00300513          	addi	x10,x0,3
  1028e8:	2900006f          	jal	x0,102b78 <_ZN4core3str16slice_error_fail17hb3a94a39cc45776aE+0x394>
  1028ec:	04c6fc63          	bgeu	x13,x12,102944 <_ZN4core3str16slice_error_fail17hb3a94a39cc45776aE+0x160>
  1028f0:	00010513          	addi	x10,x2,0
  1028f4:	04a12023          	sw	x10,64(x2)
  1028f8:	00103537          	lui	x10,0x103
  1028fc:	01450513          	addi	x10,x10,20 # 103014 <_ZN4core3fmt3num3imp52_$LT$impl$u20$core..fmt..Display$u20$for$u20$u32$GT$3fmt17hc564521f9957f2c6E>
  102900:	04a12223          	sw	x10,68(x2)
  102904:	00410593          	addi	x11,x2,4
  102908:	04b12423          	sw	x11,72(x2)
  10290c:	04a12623          	sw	x10,76(x2)
  102910:	00810513          	addi	x10,x2,8
  102914:	04a12823          	sw	x10,80(x2)
  102918:	00103537          	lui	x10,0x103
  10291c:	59850513          	addi	x10,x10,1432 # 103598 <_ZN44_$LT$$RF$T$u20$as$u20$core..fmt..Display$GT$3fmt17h8e3360572887809bE>
  102920:	04a12a23          	sw	x10,84(x2)
  102924:	01010593          	addi	x11,x2,16
  102928:	04b12c23          	sw	x11,88(x2)
  10292c:	04a12e23          	sw	x10,92(x2)
  102930:	00104537          	lui	x10,0x104
  102934:	0dc50513          	addi	x10,x10,220 # 1040dc <.Lanon.463b8e1712595053e4e5ae8ec20c28a1.320>
  102938:	02a12423          	sw	x10,40(x2)
  10293c:	00400513          	addi	x10,x0,4
  102940:	2380006f          	jal	x0,102b78 <_ZN4core3str16slice_error_fail17hb3a94a39cc45776aE+0x394>
  102944:	00163813          	sltiu	x16,x12,1
  102948:	00c5c7b3          	xor	x15,x11,x12
  10294c:	0017b793          	sltiu	x15,x15,1
  102950:	00f867b3          	or	x15,x16,x15
  102954:	00078663          	beq	x15,x0,102960 <_ZN4core3str16slice_error_fail17hb3a94a39cc45776aE+0x17c>
  102958:	00068613          	addi	x12,x13,0
  10295c:	0180006f          	jal	x0,102974 <_ZN4core3str16slice_error_fail17hb3a94a39cc45776aE+0x190>
  102960:	00b67a63          	bgeu	x12,x11,102974 <_ZN4core3str16slice_error_fail17hb3a94a39cc45776aE+0x190>
  102964:	00c507b3          	add	x15,x10,x12
  102968:	00078803          	lb	x16,0(x15)
  10296c:	fc000793          	addi	x15,x0,-64
  102970:	fef854e3          	bge	x16,x15,102958 <_ZN4core3str16slice_error_fail17hb3a94a39cc45776aE+0x174>
  102974:	00163693          	sltiu	x13,x12,1
  102978:	00b647b3          	xor	x15,x12,x11
  10297c:	0017b793          	sltiu	x15,x15,1
  102980:	00f6e6b3          	or	x13,x13,x15
  102984:	00c12c23          	sw	x12,24(x2)
  102988:	00068c63          	beq	x13,x0,1029a0 <_ZN4core3str16slice_error_fail17hb3a94a39cc45776aE+0x1bc>
  10298c:	00060793          	addi	x15,x12,0
  102990:	01c10313          	addi	x6,x2,28
  102994:	00078613          	addi	x12,x15,0
  102998:	04b60463          	beq	x12,x11,1029e0 <_ZN4core3str16slice_error_fail17hb3a94a39cc45776aE+0x1fc>
  10299c:	0680006f          	jal	x0,102a04 <_ZN4core3str16slice_error_fail17hb3a94a39cc45776aE+0x220>
  1029a0:	00158893          	addi	x17,x11,1
  1029a4:	fc000813          	addi	x16,x0,-64
  1029a8:	00b67863          	bgeu	x12,x11,1029b8 <_ZN4core3str16slice_error_fail17hb3a94a39cc45776aE+0x1d4>
  1029ac:	00c507b3          	add	x15,x10,x12
  1029b0:	00078783          	lb	x15,0(x15)
  1029b4:	0507d463          	bge	x15,x16,1029fc <_ZN4core3str16slice_error_fail17hb3a94a39cc45776aE+0x218>
  1029b8:	fff60793          	addi	x15,x12,-1
  1029bc:	0017b693          	sltiu	x13,x15,1
  1029c0:	00c8c633          	xor	x12,x17,x12
  1029c4:	00163613          	sltiu	x12,x12,1
  1029c8:	00c6e6b3          	or	x13,x13,x12
  1029cc:	00078613          	addi	x12,x15,0
  1029d0:	fc068ce3          	beq	x13,x0,1029a8 <_ZN4core3str16slice_error_fail17hb3a94a39cc45776aE+0x1c4>
  1029d4:	01c10313          	addi	x6,x2,28
  1029d8:	00078613          	addi	x12,x15,0
  1029dc:	02b61463          	bne	x12,x11,102a04 <_ZN4core3str16slice_error_fail17hb3a94a39cc45776aE+0x220>
  1029e0:	00104537          	lui	x10,0x104
  1029e4:	c4050513          	addi	x10,x10,-960 # 103c40 <.Lanon.463b8e1712595053e4e5ae8ec20c28a1.175>
  1029e8:	02b00593          	addi	x11,x0,43
  1029ec:	00070613          	addi	x12,x14,0 # 1c0000 <_sidata+0xbb528>
  1029f0:	ffffe097          	auipc	x1,0xffffe
  1029f4:	02c080e7          	jalr	x1,44(x1) # 100a1c <_ZN4core9panicking5panic17h1e4bec584ca2162eE>
  1029f8:	c0001073          	unimp
  1029fc:	01c10313          	addi	x6,x2,28
  102a00:	feb600e3          	beq	x12,x11,1029e0 <_ZN4core3str16slice_error_fail17hb3a94a39cc45776aE+0x1fc>
  102a04:	00c506b3          	add	x13,x10,x12
  102a08:	00068783          	lb	x15,0(x13)
  102a0c:	fff00813          	addi	x16,x0,-1
  102a10:	0ff7f393          	andi	x7,x15,255
  102a14:	00f85a63          	bge	x16,x15,102a28 <_ZN4core3str16slice_error_fail17hb3a94a39cc45776aE+0x244>
  102a18:	00712e23          	sw	x7,28(x2)
  102a1c:	02010513          	addi	x10,x2,32
  102a20:	00100793          	addi	x15,x0,1
  102a24:	0e40006f          	jal	x0,102b08 <_ZN4core3str16slice_error_fail17hb3a94a39cc45776aE+0x324>
  102a28:	00b50533          	add	x10,x10,x11
  102a2c:	00168593          	addi	x11,x13,1
  102a30:	02a59263          	bne	x11,x10,102a54 <_ZN4core3str16slice_error_fail17hb3a94a39cc45776aE+0x270>
  102a34:	00000893          	addi	x17,x0,0
  102a38:	00050593          	addi	x11,x10,0
  102a3c:	0df00693          	addi	x13,x0,223
  102a40:	01f3f813          	andi	x16,x7,31
  102a44:	0276e463          	bltu	x13,x7,102a6c <_ZN4core3str16slice_error_fail17hb3a94a39cc45776aE+0x288>
  102a48:	00681513          	slli	x10,x16,0x6
  102a4c:	00a8e5b3          	or	x11,x17,x10
  102a50:	0880006f          	jal	x0,102ad8 <_ZN4core3str16slice_error_fail17hb3a94a39cc45776aE+0x2f4>
  102a54:	0016c783          	lbu	x15,1(x13)
  102a58:	00268593          	addi	x11,x13,2
  102a5c:	03f7f893          	andi	x17,x15,63
  102a60:	0df00693          	addi	x13,x0,223
  102a64:	01f3f813          	andi	x16,x7,31
  102a68:	fe76f0e3          	bgeu	x13,x7,102a48 <_ZN4core3str16slice_error_fail17hb3a94a39cc45776aE+0x264>
  102a6c:	00a59863          	bne	x11,x10,102a7c <_ZN4core3str16slice_error_fail17hb3a94a39cc45776aE+0x298>
  102a70:	00000593          	addi	x11,x0,0
  102a74:	00050293          	addi	x5,x10,0
  102a78:	0100006f          	jal	x0,102a88 <_ZN4core3str16slice_error_fail17hb3a94a39cc45776aE+0x2a4>
  102a7c:	0005c683          	lbu	x13,0(x11)
  102a80:	00158293          	addi	x5,x11,1
  102a84:	03f6f593          	andi	x11,x13,63
  102a88:	00689693          	slli	x13,x17,0x6
  102a8c:	0f000793          	addi	x15,x0,240
  102a90:	00d5e5b3          	or	x11,x11,x13
  102a94:	00f3e863          	bltu	x7,x15,102aa4 <_ZN4core3str16slice_error_fail17hb3a94a39cc45776aE+0x2c0>
  102a98:	00a29c63          	bne	x5,x10,102ab0 <_ZN4core3str16slice_error_fail17hb3a94a39cc45776aE+0x2cc>
  102a9c:	00000513          	addi	x10,x0,0
  102aa0:	0180006f          	jal	x0,102ab8 <_ZN4core3str16slice_error_fail17hb3a94a39cc45776aE+0x2d4>
  102aa4:	00c81513          	slli	x10,x16,0xc
  102aa8:	00a5e5b3          	or	x11,x11,x10
  102aac:	02c0006f          	jal	x0,102ad8 <_ZN4core3str16slice_error_fail17hb3a94a39cc45776aE+0x2f4>
  102ab0:	0002c503          	lbu	x10,0(x5)
  102ab4:	03f57513          	andi	x10,x10,63
  102ab8:	01281693          	slli	x13,x16,0x12
  102abc:	001c07b7          	lui	x15,0x1c0
  102ac0:	00f6f6b3          	and	x13,x13,x15
  102ac4:	00659593          	slli	x11,x11,0x6
  102ac8:	00d5e5b3          	or	x11,x11,x13
  102acc:	00a5e5b3          	or	x11,x11,x10
  102ad0:	00110537          	lui	x10,0x110
  102ad4:	f0a586e3          	beq	x11,x10,1029e0 <_ZN4core3str16slice_error_fail17hb3a94a39cc45776aE+0x1fc>
  102ad8:	00b12e23          	sw	x11,28(x2)
  102adc:	02010513          	addi	x10,x2,32
  102ae0:	08000693          	addi	x13,x0,128
  102ae4:	00100793          	addi	x15,x0,1
  102ae8:	02d5e063          	bltu	x11,x13,102b08 <_ZN4core3str16slice_error_fail17hb3a94a39cc45776aE+0x324>
  102aec:	00b5d693          	srli	x13,x11,0xb
  102af0:	00200793          	addi	x15,x0,2
  102af4:	00068a63          	beq	x13,x0,102b08 <_ZN4core3str16slice_error_fail17hb3a94a39cc45776aE+0x324>
  102af8:	0105d593          	srli	x11,x11,0x10
  102afc:	0015b593          	sltiu	x11,x11,1
  102b00:	00400693          	addi	x13,x0,4
  102b04:	40b687b3          	sub	x15,x13,x11
  102b08:	00c785b3          	add	x11,x15,x12
  102b0c:	02c12023          	sw	x12,32(x2)
  102b10:	02b12223          	sw	x11,36(x2)
  102b14:	01810593          	addi	x11,x2,24
  102b18:	04b12023          	sw	x11,64(x2)
  102b1c:	001035b7          	lui	x11,0x103
  102b20:	01458593          	addi	x11,x11,20 # 103014 <_ZN4core3fmt3num3imp52_$LT$impl$u20$core..fmt..Display$u20$for$u20$u32$GT$3fmt17hc564521f9957f2c6E>
  102b24:	04b12223          	sw	x11,68(x2)
  102b28:	04612423          	sw	x6,72(x2)
  102b2c:	001025b7          	lui	x11,0x102
  102b30:	f5858593          	addi	x11,x11,-168 # 101f58 <_ZN41_$LT$char$u20$as$u20$core..fmt..Debug$GT$3fmt17h4ddbdfd1830b9798E>
  102b34:	04b12623          	sw	x11,76(x2)
  102b38:	04a12823          	sw	x10,80(x2)
  102b3c:	00101537          	lui	x10,0x101
  102b40:	8f450513          	addi	x10,x10,-1804 # 1008f4 <_ZN71_$LT$core..ops..range..Range$LT$Idx$GT$$u20$as$u20$core..fmt..Debug$GT$3fmt17h929735d245d407f5E>
  102b44:	04a12a23          	sw	x10,84(x2)
  102b48:	00810513          	addi	x10,x2,8
  102b4c:	04a12c23          	sw	x10,88(x2)
  102b50:	00103537          	lui	x10,0x103
  102b54:	59850513          	addi	x10,x10,1432 # 103598 <_ZN44_$LT$$RF$T$u20$as$u20$core..fmt..Display$GT$3fmt17h8e3360572887809bE>
  102b58:	04a12e23          	sw	x10,92(x2)
  102b5c:	01010593          	addi	x11,x2,16
  102b60:	06b12023          	sw	x11,96(x2)
  102b64:	06a12223          	sw	x10,100(x2)
  102b68:	00104537          	lui	x10,0x104
  102b6c:	12850513          	addi	x10,x10,296 # 104128 <.Lanon.463b8e1712595053e4e5ae8ec20c28a1.324>
  102b70:	02a12423          	sw	x10,40(x2)
  102b74:	00500513          	addi	x10,x0,5
  102b78:	02a12623          	sw	x10,44(x2)
  102b7c:	02012823          	sw	x0,48(x2)
  102b80:	04010593          	addi	x11,x2,64
  102b84:	02b12c23          	sw	x11,56(x2)
  102b88:	02a12e23          	sw	x10,60(x2)
  102b8c:	02810513          	addi	x10,x2,40
  102b90:	00070593          	addi	x11,x14,0
  102b94:	ffffe097          	auipc	x1,0xffffe
  102b98:	f38080e7          	jalr	x1,-200(x1) # 100acc <_ZN4core9panicking9panic_fmt17h9b4c539136e2bca5E>
  102b9c:	c0001073          	unimp

00102ba0 <_ZN4core7unicode9printable12is_printable17haabb8d6b04d23617E>:
  102ba0:	ff010113          	addi	x2,x2,-16
  102ba4:	00112623          	sw	x1,12(x2)
  102ba8:	01055593          	srli	x11,x10,0x10
  102bac:	0a059863          	bne	x11,x0,102c5c <_ZN4core7unicode9printable12is_printable17haabb8d6b04d23617E+0xbc>
  102bb0:	00000593          	addi	x11,x0,0
  102bb4:	00010637          	lui	x12,0x10
  102bb8:	f0060613          	addi	x12,x12,-256 # ff00 <_hart_stack_size+0xf700>
  102bbc:	00c57633          	and	x12,x10,x12
  102bc0:	00865313          	srli	x6,x12,0x8
  102bc4:	00104637          	lui	x12,0x104
  102bc8:	19860793          	addi	x15,x12,408 # 104198 <.Lanon.463b8e1712595053e4e5ae8ec20c28a1.347>
  102bcc:	12200813          	addi	x16,x0,290
  102bd0:	00104637          	lui	x12,0x104
  102bd4:	1ea60893          	addi	x17,x12,490 # 1041ea <.Lanon.463b8e1712595053e4e5ae8ec20c28a1.348>
  102bd8:	05278293          	addi	x5,x15,82 # 1c0052 <_sidata+0xbb57a>
  102bdc:	0ff57713          	andi	x14,x10,255
  102be0:	01c0006f          	jal	x0,102bfc <_ZN4core7unicode9printable12is_printable17haabb8d6b04d23617E+0x5c>
  102be4:	00d335b3          	sltu	x11,x6,x13
  102be8:	0057c633          	xor	x12,x15,x5
  102bec:	00163613          	sltiu	x12,x12,1
  102bf0:	00c5e633          	or	x12,x11,x12
  102bf4:	00038593          	addi	x11,x7,0
  102bf8:	04061263          	bne	x12,x0,102c3c <_ZN4core7unicode9printable12is_printable17haabb8d6b04d23617E+0x9c>
  102bfc:	0007c683          	lbu	x13,0(x15)
  102c00:	0017c603          	lbu	x12,1(x15)
  102c04:	00278793          	addi	x15,x15,2
  102c08:	00c583b3          	add	x7,x11,x12
  102c0c:	fc669ce3          	bne	x13,x6,102be4 <_ZN4core7unicode9printable12is_printable17haabb8d6b04d23617E+0x44>
  102c10:	28b3e263          	bltu	x7,x11,102e94 <_ZN4core7unicode9printable12is_printable17haabb8d6b04d23617E+0x2f4>
  102c14:	28786e63          	bltu	x16,x7,102eb0 <_ZN4core7unicode9printable12is_printable17haabb8d6b04d23617E+0x310>
  102c18:	011585b3          	add	x11,x11,x17
  102c1c:	00060c63          	beq	x12,x0,102c34 <_ZN4core7unicode9printable12is_printable17haabb8d6b04d23617E+0x94>
  102c20:	0005c683          	lbu	x13,0(x11)
  102c24:	00158593          	addi	x11,x11,1
  102c28:	fff60613          	addi	x12,x12,-1
  102c2c:	fee698e3          	bne	x13,x14,102c1c <_ZN4core7unicode9printable12is_printable17haabb8d6b04d23617E+0x7c>
  102c30:	1d80006f          	jal	x0,102e08 <_ZN4core7unicode9printable12is_printable17haabb8d6b04d23617E+0x268>
  102c34:	00038593          	addi	x11,x7,0
  102c38:	fc5792e3          	bne	x15,x5,102bfc <_ZN4core7unicode9printable12is_printable17haabb8d6b04d23617E+0x5c>
  102c3c:	000105b7          	lui	x11,0x10
  102c40:	fff58593          	addi	x11,x11,-1 # ffff <_hart_stack_size+0xf7ff>
  102c44:	00b575b3          	and	x11,x10,x11
  102c48:	00104537          	lui	x10,0x104
  102c4c:	30c50693          	addi	x13,x10,780 # 10430c <.Lanon.463b8e1712595053e4e5ae8ec20c28a1.349>
  102c50:	00100513          	addi	x10,x0,1
  102c54:	13568813          	addi	x16,x13,309
  102c58:	0cc0006f          	jal	x0,102d24 <_ZN4core7unicode9printable12is_printable17haabb8d6b04d23617E+0x184>
  102c5c:	01155593          	srli	x11,x10,0x11
  102c60:	0e059e63          	bne	x11,x0,102d5c <_ZN4core7unicode9printable12is_printable17haabb8d6b04d23617E+0x1bc>
  102c64:	00000593          	addi	x11,x0,0
  102c68:	00010637          	lui	x12,0x10
  102c6c:	f0060613          	addi	x12,x12,-256 # ff00 <_hart_stack_size+0xf700>
  102c70:	00c57633          	and	x12,x10,x12
  102c74:	00865313          	srli	x6,x12,0x8
  102c78:	00104637          	lui	x12,0x104
  102c7c:	44160793          	addi	x15,x12,1089 # 104441 <.Lanon.463b8e1712595053e4e5ae8ec20c28a1.350>
  102c80:	0af00813          	addi	x16,x0,175
  102c84:	00104637          	lui	x12,0x104
  102c88:	48d60893          	addi	x17,x12,1165 # 10448d <.Lanon.463b8e1712595053e4e5ae8ec20c28a1.351>
  102c8c:	04c78293          	addi	x5,x15,76
  102c90:	0ff57713          	andi	x14,x10,255
  102c94:	01c0006f          	jal	x0,102cb0 <_ZN4core7unicode9printable12is_printable17haabb8d6b04d23617E+0x110>
  102c98:	00d335b3          	sltu	x11,x6,x13
  102c9c:	0057c633          	xor	x12,x15,x5
  102ca0:	00163613          	sltiu	x12,x12,1
  102ca4:	00c5e633          	or	x12,x11,x12
  102ca8:	00038593          	addi	x11,x7,0
  102cac:	04061263          	bne	x12,x0,102cf0 <_ZN4core7unicode9printable12is_printable17haabb8d6b04d23617E+0x150>
  102cb0:	0007c683          	lbu	x13,0(x15)
  102cb4:	0017c603          	lbu	x12,1(x15)
  102cb8:	00278793          	addi	x15,x15,2
  102cbc:	00c583b3          	add	x7,x11,x12
  102cc0:	fc669ce3          	bne	x13,x6,102c98 <_ZN4core7unicode9printable12is_printable17haabb8d6b04d23617E+0xf8>
  102cc4:	1cb3e863          	bltu	x7,x11,102e94 <_ZN4core7unicode9printable12is_printable17haabb8d6b04d23617E+0x2f4>
  102cc8:	1e786c63          	bltu	x16,x7,102ec0 <_ZN4core7unicode9printable12is_printable17haabb8d6b04d23617E+0x320>
  102ccc:	011585b3          	add	x11,x11,x17
  102cd0:	00060c63          	beq	x12,x0,102ce8 <_ZN4core7unicode9printable12is_printable17haabb8d6b04d23617E+0x148>
  102cd4:	0005c683          	lbu	x13,0(x11)
  102cd8:	00158593          	addi	x11,x11,1
  102cdc:	fff60613          	addi	x12,x12,-1
  102ce0:	fee698e3          	bne	x13,x14,102cd0 <_ZN4core7unicode9printable12is_printable17haabb8d6b04d23617E+0x130>
  102ce4:	1380006f          	jal	x0,102e1c <_ZN4core7unicode9printable12is_printable17haabb8d6b04d23617E+0x27c>
  102ce8:	00038593          	addi	x11,x7,0
  102cec:	fc5792e3          	bne	x15,x5,102cb0 <_ZN4core7unicode9printable12is_printable17haabb8d6b04d23617E+0x110>
  102cf0:	000105b7          	lui	x11,0x10
  102cf4:	fff58593          	addi	x11,x11,-1 # ffff <_hart_stack_size+0xf7ff>
  102cf8:	00b575b3          	and	x11,x10,x11
  102cfc:	00104537          	lui	x10,0x104
  102d00:	53c50693          	addi	x13,x10,1340 # 10453c <.Lanon.463b8e1712595053e4e5ae8ec20c28a1.352>
  102d04:	00100513          	addi	x10,x0,1
  102d08:	1a368813          	addi	x16,x13,419
  102d0c:	1380006f          	jal	x0,102e44 <_ZN4core7unicode9printable12is_printable17haabb8d6b04d23617E+0x2a4>
  102d10:	00060693          	addi	x13,x12,0
  102d14:	40e585b3          	sub	x11,x11,x14
  102d18:	1005c463          	blt	x11,x0,102e20 <_ZN4core7unicode9printable12is_printable17haabb8d6b04d23617E+0x280>
  102d1c:	00154513          	xori	x10,x10,1
  102d20:	11068063          	beq	x13,x16,102e20 <_ZN4core7unicode9printable12is_printable17haabb8d6b04d23617E+0x280>
  102d24:	0006c703          	lbu	x14,0(x13)
  102d28:	01871613          	slli	x12,x14,0x18
  102d2c:	41865793          	srai	x15,x12,0x18
  102d30:	00168613          	addi	x12,x13,1
  102d34:	fc07dee3          	bge	x15,x0,102d10 <_ZN4core7unicode9printable12is_printable17haabb8d6b04d23617E+0x170>
  102d38:	1b060263          	beq	x12,x16,102edc <_ZN4core7unicode9printable12is_printable17haabb8d6b04d23617E+0x33c>
  102d3c:	0016c603          	lbu	x12,1(x13)
  102d40:	07f7f713          	andi	x14,x15,127
  102d44:	00871713          	slli	x14,x14,0x8
  102d48:	00268693          	addi	x13,x13,2
  102d4c:	00c76733          	or	x14,x14,x12
  102d50:	40e585b3          	sub	x11,x11,x14
  102d54:	fc05d4e3          	bge	x11,x0,102d1c <_ZN4core7unicode9printable12is_printable17haabb8d6b04d23617E+0x17c>
  102d58:	0c80006f          	jal	x0,102e20 <_ZN4core7unicode9printable12is_printable17haabb8d6b04d23617E+0x280>
  102d5c:	fffd65b7          	lui	x11,0xfffd6
  102d60:	92258593          	addi	x11,x11,-1758 # fffd5922 <_sstack+0xfdfd5922>
  102d64:	00b505b3          	add	x11,x10,x11
  102d68:	0225b593          	sltiu	x11,x11,34
  102d6c:	fffd5637          	lui	x12,0xfffd5
  102d70:	8cb60613          	addi	x12,x12,-1845 # fffd48cb <_sstack+0xfdfd48cb>
  102d74:	00c50633          	add	x12,x10,x12
  102d78:	00b63613          	sltiu	x12,x12,11
  102d7c:	00c5e5b3          	or	x11,x11,x12
  102d80:	00200637          	lui	x12,0x200
  102d84:	ffe60613          	addi	x12,x12,-2 # 1ffffe <_sidata+0xfb526>
  102d88:	00c57633          	and	x12,x10,x12
  102d8c:	0002c6b7          	lui	x13,0x2c
  102d90:	81e68693          	addi	x13,x13,-2018 # 2b81e <.Lline_table_start0+0xef7e>
  102d94:	00d64633          	xor	x12,x12,x13
  102d98:	00163613          	sltiu	x12,x12,1
  102d9c:	00b665b3          	or	x11,x12,x11
  102da0:	fffd3637          	lui	x12,0xfffd3
  102da4:	15e60613          	addi	x12,x12,350 # fffd315e <_sstack+0xfdfd315e>
  102da8:	00c50633          	add	x12,x10,x12
  102dac:	00e63613          	sltiu	x12,x12,14
  102db0:	00b665b3          	or	x11,x12,x11
  102db4:	fffd1637          	lui	x12,0xfffd1
  102db8:	41f60613          	addi	x12,x12,1055 # fffd141f <_sstack+0xfdfd141f>
  102dbc:	00c50633          	add	x12,x10,x12
  102dc0:	000016b7          	lui	x13,0x1
  102dc4:	c1f68693          	addi	x13,x13,-993 # c1f <_hart_stack_size+0x41f>
  102dc8:	00d63633          	sltu	x12,x12,x13
  102dcc:	00b665b3          	or	x11,x12,x11
  102dd0:	fffd0637          	lui	x12,0xfffd0
  102dd4:	5e260613          	addi	x12,x12,1506 # fffd05e2 <_sstack+0xfdfd05e2>
  102dd8:	00c50633          	add	x12,x10,x12
  102ddc:	5e263613          	sltiu	x12,x12,1506
  102de0:	00b665b3          	or	x11,x12,x11
  102de4:	fffcf637          	lui	x12,0xfffcf
  102de8:	cb560613          	addi	x12,x12,-843 # fffcecb5 <_sstack+0xfdfcecb5>
  102dec:	00c50633          	add	x12,x10,x12
  102df0:	000af6b7          	lui	x13,0xaf
  102df4:	db568693          	addi	x13,x13,-587 # aedb5 <.Lline_table_start0+0x92515>
  102df8:	00d63633          	sltu	x12,x12,x13
  102dfc:	00b665b3          	or	x11,x12,x11
  102e00:	0015f593          	andi	x11,x11,1
  102e04:	06058c63          	beq	x11,x0,102e7c <_ZN4core7unicode9printable12is_printable17haabb8d6b04d23617E+0x2dc>
  102e08:	00000513          	addi	x10,x0,0
  102e0c:	00157513          	andi	x10,x10,1
  102e10:	00c12083          	lw	x1,12(x2)
  102e14:	01010113          	addi	x2,x2,16
  102e18:	00008067          	jalr	x0,0(x1)
  102e1c:	00000513          	addi	x10,x0,0
  102e20:	00157513          	andi	x10,x10,1
  102e24:	00c12083          	lw	x1,12(x2)
  102e28:	01010113          	addi	x2,x2,16
  102e2c:	00008067          	jalr	x0,0(x1)
  102e30:	00060693          	addi	x13,x12,0
  102e34:	40e585b3          	sub	x11,x11,x14
  102e38:	fe05c4e3          	blt	x11,x0,102e20 <_ZN4core7unicode9printable12is_printable17haabb8d6b04d23617E+0x280>
  102e3c:	00154513          	xori	x10,x10,1
  102e40:	ff0680e3          	beq	x13,x16,102e20 <_ZN4core7unicode9printable12is_printable17haabb8d6b04d23617E+0x280>
  102e44:	0006c703          	lbu	x14,0(x13)
  102e48:	01871613          	slli	x12,x14,0x18
  102e4c:	41865793          	srai	x15,x12,0x18
  102e50:	00168613          	addi	x12,x13,1
  102e54:	fc07dee3          	bge	x15,x0,102e30 <_ZN4core7unicode9printable12is_printable17haabb8d6b04d23617E+0x290>
  102e58:	09060263          	beq	x12,x16,102edc <_ZN4core7unicode9printable12is_printable17haabb8d6b04d23617E+0x33c>
  102e5c:	0016c603          	lbu	x12,1(x13)
  102e60:	07f7f713          	andi	x14,x15,127
  102e64:	00871713          	slli	x14,x14,0x8
  102e68:	00268693          	addi	x13,x13,2
  102e6c:	00c76733          	or	x14,x14,x12
  102e70:	40e585b3          	sub	x11,x11,x14
  102e74:	fc05d4e3          	bge	x11,x0,102e3c <_ZN4core7unicode9printable12is_printable17haabb8d6b04d23617E+0x29c>
  102e78:	fa9ff06f          	jal	x0,102e20 <_ZN4core7unicode9printable12is_printable17haabb8d6b04d23617E+0x280>
  102e7c:	000e05b7          	lui	x11,0xe0
  102e80:	1f058593          	addi	x11,x11,496 # e01f0 <.Lline_table_start0+0xc3950>
  102e84:	00b53533          	sltu	x10,x10,x11
  102e88:	00c12083          	lw	x1,12(x2)
  102e8c:	01010113          	addi	x2,x2,16
  102e90:	00008067          	jalr	x0,0(x1)
  102e94:	00104537          	lui	x10,0x104
  102e98:	17850613          	addi	x12,x10,376 # 104178 <.Lanon.463b8e1712595053e4e5ae8ec20c28a1.345>
  102e9c:	00058513          	addi	x10,x11,0
  102ea0:	00038593          	addi	x11,x7,0
  102ea4:	fffff097          	auipc	x1,0xfffff
  102ea8:	5b4080e7          	jalr	x1,1460(x1) # 102458 <_ZN4core5slice5index22slice_index_order_fail17hf16c2c526f8af9e8E>
  102eac:	c0001073          	unimp
  102eb0:	00104537          	lui	x10,0x104
  102eb4:	17850613          	addi	x12,x10,376 # 104178 <.Lanon.463b8e1712595053e4e5ae8ec20c28a1.345>
  102eb8:	12200593          	addi	x11,x0,290
  102ebc:	0100006f          	jal	x0,102ecc <_ZN4core7unicode9printable12is_printable17haabb8d6b04d23617E+0x32c>
  102ec0:	00104537          	lui	x10,0x104
  102ec4:	17850613          	addi	x12,x10,376 # 104178 <.Lanon.463b8e1712595053e4e5ae8ec20c28a1.345>
  102ec8:	0af00593          	addi	x11,x0,175
  102ecc:	00038513          	addi	x10,x7,0
  102ed0:	fffff097          	auipc	x1,0xfffff
  102ed4:	520080e7          	jalr	x1,1312(x1) # 1023f0 <_ZN4core5slice5index24slice_end_index_len_fail17ha1975a8c2a737844E>
  102ed8:	c0001073          	unimp
  102edc:	00104537          	lui	x10,0x104
  102ee0:	c4050513          	addi	x10,x10,-960 # 103c40 <.Lanon.463b8e1712595053e4e5ae8ec20c28a1.175>
  102ee4:	001045b7          	lui	x11,0x104
  102ee8:	18858613          	addi	x12,x11,392 # 104188 <.Lanon.463b8e1712595053e4e5ae8ec20c28a1.346>
  102eec:	02b00593          	addi	x11,x0,43
  102ef0:	ffffe097          	auipc	x1,0xffffe
  102ef4:	b2c080e7          	jalr	x1,-1236(x1) # 100a1c <_ZN4core9panicking5panic17h1e4bec584ca2162eE>
  102ef8:	c0001073          	unimp

00102efc <_ZN4core3fmt3num52_$LT$impl$u20$core..fmt..Debug$u20$for$u20$usize$GT$3fmt17h0c9ce5cc75d55056E>:
  102efc:	f7010113          	addi	x2,x2,-144
  102f00:	08112623          	sw	x1,140(x2)
  102f04:	00058813          	addi	x16,x11,0
  102f08:	0005a583          	lw	x11,0(x11)
  102f0c:	0105f613          	andi	x12,x11,16
  102f10:	02061063          	bne	x12,x0,102f30 <_ZN4core3fmt3num52_$LT$impl$u20$core..fmt..Debug$u20$for$u20$usize$GT$3fmt17h0c9ce5cc75d55056E+0x34>
  102f14:	0205f593          	andi	x11,x11,32
  102f18:	06059063          	bne	x11,x0,102f78 <_ZN4core3fmt3num52_$LT$impl$u20$core..fmt..Debug$u20$for$u20$usize$GT$3fmt17h0c9ce5cc75d55056E+0x7c>
  102f1c:	00080593          	addi	x11,x16,0
  102f20:	08c12083          	lw	x1,140(x2)
  102f24:	09010113          	addi	x2,x2,144
  102f28:	00000317          	auipc	x6,0x0
  102f2c:	0ec30067          	jalr	x0,236(x6) # 103014 <_ZN4core3fmt3num3imp52_$LT$impl$u20$core..fmt..Display$u20$for$u20$u32$GT$3fmt17hc564521f9957f2c6E>
  102f30:	00052503          	lw	x10,0(x10)
  102f34:	00000593          	addi	x11,x0,0
  102f38:	00c10613          	addi	x12,x2,12
  102f3c:	00a00693          	addi	x13,x0,10
  102f40:	0140006f          	jal	x0,102f54 <_ZN4core3fmt3num52_$LT$impl$u20$core..fmt..Debug$u20$for$u20$usize$GT$3fmt17h0c9ce5cc75d55056E+0x58>
  102f44:	05778793          	addi	x15,x15,87
  102f48:	06f70fa3          	sb	x15,127(x14)
  102f4c:	fff58593          	addi	x11,x11,-1
  102f50:	06050663          	beq	x10,x0,102fbc <_ZN4core3fmt3num52_$LT$impl$u20$core..fmt..Debug$u20$for$u20$usize$GT$3fmt17h0c9ce5cc75d55056E+0xc0>
  102f54:	00b60733          	add	x14,x12,x11
  102f58:	00f57793          	andi	x15,x10,15
  102f5c:	00455513          	srli	x10,x10,0x4
  102f60:	fed7f2e3          	bgeu	x15,x13,102f44 <_ZN4core3fmt3num52_$LT$impl$u20$core..fmt..Debug$u20$for$u20$usize$GT$3fmt17h0c9ce5cc75d55056E+0x48>
  102f64:	0307e793          	ori	x15,x15,48
  102f68:	06f70fa3          	sb	x15,127(x14)
  102f6c:	fff58593          	addi	x11,x11,-1
  102f70:	fe0512e3          	bne	x10,x0,102f54 <_ZN4core3fmt3num52_$LT$impl$u20$core..fmt..Debug$u20$for$u20$usize$GT$3fmt17h0c9ce5cc75d55056E+0x58>
  102f74:	0480006f          	jal	x0,102fbc <_ZN4core3fmt3num52_$LT$impl$u20$core..fmt..Debug$u20$for$u20$usize$GT$3fmt17h0c9ce5cc75d55056E+0xc0>
  102f78:	00052503          	lw	x10,0(x10)
  102f7c:	00000593          	addi	x11,x0,0
  102f80:	00c10613          	addi	x12,x2,12
  102f84:	00a00693          	addi	x13,x0,10
  102f88:	0140006f          	jal	x0,102f9c <_ZN4core3fmt3num52_$LT$impl$u20$core..fmt..Debug$u20$for$u20$usize$GT$3fmt17h0c9ce5cc75d55056E+0xa0>
  102f8c:	03778793          	addi	x15,x15,55
  102f90:	06f70fa3          	sb	x15,127(x14)
  102f94:	fff58593          	addi	x11,x11,-1
  102f98:	02050263          	beq	x10,x0,102fbc <_ZN4core3fmt3num52_$LT$impl$u20$core..fmt..Debug$u20$for$u20$usize$GT$3fmt17h0c9ce5cc75d55056E+0xc0>
  102f9c:	00b60733          	add	x14,x12,x11
  102fa0:	00f57793          	andi	x15,x10,15
  102fa4:	00455513          	srli	x10,x10,0x4
  102fa8:	fed7f2e3          	bgeu	x15,x13,102f8c <_ZN4core3fmt3num52_$LT$impl$u20$core..fmt..Debug$u20$for$u20$usize$GT$3fmt17h0c9ce5cc75d55056E+0x90>
  102fac:	0307e793          	ori	x15,x15,48
  102fb0:	06f70fa3          	sb	x15,127(x14)
  102fb4:	fff58593          	addi	x11,x11,-1
  102fb8:	fe0512e3          	bne	x10,x0,102f9c <_ZN4core3fmt3num52_$LT$impl$u20$core..fmt..Debug$u20$for$u20$usize$GT$3fmt17h0c9ce5cc75d55056E+0xa0>
  102fbc:	08058513          	addi	x10,x11,128
  102fc0:	08100693          	addi	x13,x0,129
  102fc4:	02d57c63          	bgeu	x10,x13,102ffc <_ZN4core3fmt3num52_$LT$impl$u20$core..fmt..Debug$u20$for$u20$usize$GT$3fmt17h0c9ce5cc75d55056E+0x100>
  102fc8:	40b007b3          	sub	x15,x0,x11
  102fcc:	00b60533          	add	x10,x12,x11
  102fd0:	08050713          	addi	x14,x10,128
  102fd4:	00104537          	lui	x10,0x104
  102fd8:	d9c50613          	addi	x12,x10,-612 # 103d9c <.Lanon.463b8e1712595053e4e5ae8ec20c28a1.222>
  102fdc:	00100593          	addi	x11,x0,1
  102fe0:	00200693          	addi	x13,x0,2
  102fe4:	00080513          	addi	x10,x16,0
  102fe8:	ffffe097          	auipc	x1,0xffffe
  102fec:	764080e7          	jalr	x1,1892(x1) # 10174c <_ZN4core3fmt9Formatter12pad_integral17he2541bb2ad863cd8E>
  102ff0:	08c12083          	lw	x1,140(x2)
  102ff4:	09010113          	addi	x2,x2,144
  102ff8:	00008067          	jalr	x0,0(x1)
  102ffc:	001045b7          	lui	x11,0x104
  103000:	d8c58613          	addi	x12,x11,-628 # 103d8c <.Lanon.463b8e1712595053e4e5ae8ec20c28a1.221>
  103004:	08000593          	addi	x11,x0,128
  103008:	fffff097          	auipc	x1,0xfffff
  10300c:	380080e7          	jalr	x1,896(x1) # 102388 <_ZN4core5slice5index26slice_start_index_len_fail17h808ec7d9fb05cfddE>
  103010:	c0001073          	unimp

00103014 <_ZN4core3fmt3num3imp52_$LT$impl$u20$core..fmt..Display$u20$for$u20$u32$GT$3fmt17hc564521f9957f2c6E>:
  103014:	fa010113          	addi	x2,x2,-96
  103018:	04112e23          	sw	x1,92(x2)
  10301c:	04812c23          	sw	x8,88(x2)
  103020:	04912a23          	sw	x9,84(x2)
  103024:	05212823          	sw	x18,80(x2)
  103028:	05312623          	sw	x19,76(x2)
  10302c:	05412423          	sw	x20,72(x2)
  103030:	05512223          	sw	x21,68(x2)
  103034:	05612023          	sw	x22,64(x2)
  103038:	03712e23          	sw	x23,60(x2)
  10303c:	03812c23          	sw	x24,56(x2)
  103040:	03912a23          	sw	x25,52(x2)
  103044:	03a12823          	sw	x26,48(x2)
  103048:	03b12623          	sw	x27,44(x2)
  10304c:	00052a03          	lw	x20,0(x10)
  103050:	00058913          	addi	x18,x11,0
  103054:	004a5513          	srli	x10,x20,0x4
  103058:	27100593          	addi	x11,x0,625
  10305c:	02700493          	addi	x9,x0,39
  103060:	02b57663          	bgeu	x10,x11,10308c <_ZN4core3fmt3num3imp52_$LT$impl$u20$core..fmt..Display$u20$for$u20$u32$GT$3fmt17hc564521f9957f2c6E+0x78>
  103064:	06300513          	addi	x10,x0,99
  103068:	0f454263          	blt	x10,x20,10314c <_ZN4core3fmt3num3imp52_$LT$impl$u20$core..fmt..Display$u20$for$u20$u32$GT$3fmt17hc564521f9957f2c6E+0x138>
  10306c:	00a00513          	addi	x10,x0,10
  103070:	14aa5463          	bge	x20,x10,1031b8 <_ZN4core3fmt3num3imp52_$LT$impl$u20$core..fmt..Display$u20$for$u20$u32$GT$3fmt17hc564521f9957f2c6E+0x1a4>
  103074:	fff48513          	addi	x10,x9,-1
  103078:	00510593          	addi	x11,x2,5
  10307c:	00a585b3          	add	x11,x11,x10
  103080:	030a0613          	addi	x12,x20,48
  103084:	00c58023          	sb	x12,0(x11)
  103088:	15c0006f          	jal	x0,1031e4 <_ZN4core3fmt3num3imp52_$LT$impl$u20$core..fmt..Display$u20$for$u20$u32$GT$3fmt17hc564521f9957f2c6E+0x1d0>
  10308c:	00000413          	addi	x8,x0,0
  103090:	00002537          	lui	x10,0x2
  103094:	71050993          	addi	x19,x10,1808 # 2710 <_hart_stack_size+0x1f10>
  103098:	00010537          	lui	x10,0x10
  10309c:	fff50a93          	addi	x21,x10,-1 # ffff <_hart_stack_size+0xf7ff>
  1030a0:	ffe50b13          	addi	x22,x10,-2
  1030a4:	00104537          	lui	x10,0x104
  1030a8:	d9e50b93          	addi	x23,x10,-610 # 103d9e <.Lanon.463b8e1712595053e4e5ae8ec20c28a1.225>
  1030ac:	00510c13          	addi	x24,x2,5
  1030b0:	05f5e537          	lui	x10,0x5f5e
  1030b4:	0ff50c93          	addi	x25,x10,255 # 5f5e0ff <_sstack+0x3f5e0ff>
  1030b8:	000a0d13          	addi	x26,x20,0
  1030bc:	000a0513          	addi	x10,x20,0
  1030c0:	00098593          	addi	x11,x19,0
  1030c4:	00001097          	auipc	x1,0x1
  1030c8:	830080e7          	jalr	x1,-2000(x1) # 1038f4 <__udivsi3>
  1030cc:	00050a13          	addi	x20,x10,0
  1030d0:	00098593          	addi	x11,x19,0
  1030d4:	00001097          	auipc	x1,0x1
  1030d8:	828080e7          	jalr	x1,-2008(x1) # 1038fc <__mulsi3>
  1030dc:	40ad04b3          	sub	x9,x26,x10
  1030e0:	0154f533          	and	x10,x9,x21
  1030e4:	06400593          	addi	x11,x0,100
  1030e8:	00001097          	auipc	x1,0x1
  1030ec:	80c080e7          	jalr	x1,-2036(x1) # 1038f4 <__udivsi3>
  1030f0:	00151d93          	slli	x27,x10,0x1
  1030f4:	06400593          	addi	x11,x0,100
  1030f8:	00001097          	auipc	x1,0x1
  1030fc:	804080e7          	jalr	x1,-2044(x1) # 1038fc <__mulsi3>
  103100:	40a48533          	sub	x10,x9,x10
  103104:	00151513          	slli	x10,x10,0x1
  103108:	01657533          	and	x10,x10,x22
  10310c:	017d85b3          	add	x11,x27,x23
  103110:	008c0633          	add	x12,x24,x8
  103114:	0005c683          	lbu	x13,0(x11)
  103118:	00158583          	lb	x11,1(x11)
  10311c:	01750533          	add	x10,x10,x23
  103120:	00150703          	lb	x14,1(x10)
  103124:	00054503          	lbu	x10,0(x10)
  103128:	02b60223          	sb	x11,36(x12)
  10312c:	02d601a3          	sb	x13,35(x12)
  103130:	02e60323          	sb	x14,38(x12)
  103134:	02a602a3          	sb	x10,37(x12)
  103138:	ffc40413          	addi	x8,x8,-4
  10313c:	f7aceee3          	bltu	x25,x26,1030b8 <_ZN4core3fmt3num3imp52_$LT$impl$u20$core..fmt..Display$u20$for$u20$u32$GT$3fmt17hc564521f9957f2c6E+0xa4>
  103140:	02740493          	addi	x9,x8,39
  103144:	06300513          	addi	x10,x0,99
  103148:	f34552e3          	bge	x10,x20,10306c <_ZN4core3fmt3num3imp52_$LT$impl$u20$core..fmt..Display$u20$for$u20$u32$GT$3fmt17hc564521f9957f2c6E+0x58>
  10314c:	00010437          	lui	x8,0x10
  103150:	fff40513          	addi	x10,x8,-1 # ffff <_hart_stack_size+0xf7ff>
  103154:	00aa7533          	and	x10,x20,x10
  103158:	06400593          	addi	x11,x0,100
  10315c:	00000097          	auipc	x1,0x0
  103160:	798080e7          	jalr	x1,1944(x1) # 1038f4 <__udivsi3>
  103164:	00050993          	addi	x19,x10,0
  103168:	06400593          	addi	x11,x0,100
  10316c:	00000097          	auipc	x1,0x0
  103170:	790080e7          	jalr	x1,1936(x1) # 1038fc <__mulsi3>
  103174:	40aa0533          	sub	x10,x20,x10
  103178:	00151513          	slli	x10,x10,0x1
  10317c:	ffe40593          	addi	x11,x8,-2
  103180:	00b57533          	and	x10,x10,x11
  103184:	ffe48493          	addi	x9,x9,-2
  103188:	001045b7          	lui	x11,0x104
  10318c:	d9e58593          	addi	x11,x11,-610 # 103d9e <.Lanon.463b8e1712595053e4e5ae8ec20c28a1.225>
  103190:	00b50533          	add	x10,x10,x11
  103194:	00150583          	lb	x11,1(x10)
  103198:	00054503          	lbu	x10,0(x10)
  10319c:	00510613          	addi	x12,x2,5
  1031a0:	00960633          	add	x12,x12,x9
  1031a4:	00b600a3          	sb	x11,1(x12)
  1031a8:	00a60023          	sb	x10,0(x12)
  1031ac:	00098a13          	addi	x20,x19,0
  1031b0:	00a00513          	addi	x10,x0,10
  1031b4:	ecaa40e3          	blt	x20,x10,103074 <_ZN4core3fmt3num3imp52_$LT$impl$u20$core..fmt..Display$u20$for$u20$u32$GT$3fmt17hc564521f9957f2c6E+0x60>
  1031b8:	001a1593          	slli	x11,x20,0x1
  1031bc:	ffe48513          	addi	x10,x9,-2
  1031c0:	00104637          	lui	x12,0x104
  1031c4:	d9e60613          	addi	x12,x12,-610 # 103d9e <.Lanon.463b8e1712595053e4e5ae8ec20c28a1.225>
  1031c8:	00c585b3          	add	x11,x11,x12
  1031cc:	00158603          	lb	x12,1(x11)
  1031d0:	0005c583          	lbu	x11,0(x11)
  1031d4:	00510693          	addi	x13,x2,5
  1031d8:	00a686b3          	add	x13,x13,x10
  1031dc:	00c680a3          	sb	x12,1(x13)
  1031e0:	00b68023          	sb	x11,0(x13)
  1031e4:	00510593          	addi	x11,x2,5
  1031e8:	00a58733          	add	x14,x11,x10
  1031ec:	02700593          	addi	x11,x0,39
  1031f0:	40a587b3          	sub	x15,x11,x10
  1031f4:	00104537          	lui	x10,0x104
  1031f8:	c0450613          	addi	x12,x10,-1020 # 103c04 <.Lanon.463b8e1712595053e4e5ae8ec20c28a1.33>
  1031fc:	00100593          	addi	x11,x0,1
  103200:	00090513          	addi	x10,x18,0
  103204:	00000693          	addi	x13,x0,0
  103208:	ffffe097          	auipc	x1,0xffffe
  10320c:	544080e7          	jalr	x1,1348(x1) # 10174c <_ZN4core3fmt9Formatter12pad_integral17he2541bb2ad863cd8E>
  103210:	02c12d83          	lw	x27,44(x2)
  103214:	03012d03          	lw	x26,48(x2)
  103218:	03412c83          	lw	x25,52(x2)
  10321c:	03812c03          	lw	x24,56(x2)
  103220:	03c12b83          	lw	x23,60(x2)
  103224:	04012b03          	lw	x22,64(x2)
  103228:	04412a83          	lw	x21,68(x2)
  10322c:	04812a03          	lw	x20,72(x2)
  103230:	04c12983          	lw	x19,76(x2)
  103234:	05012903          	lw	x18,80(x2)
  103238:	05412483          	lw	x9,84(x2)
  10323c:	05812403          	lw	x8,88(x2)
  103240:	05c12083          	lw	x1,92(x2)
  103244:	06010113          	addi	x2,x2,96
  103248:	00008067          	jalr	x0,0(x1)

0010324c <_ZN42_$LT$$RF$T$u20$as$u20$core..fmt..Debug$GT$3fmt17h46f01b141542ed36E>:
  10324c:	f7010113          	addi	x2,x2,-144
  103250:	08112623          	sw	x1,140(x2)
  103254:	08812423          	sw	x8,136(x2)
  103258:	08912223          	sw	x9,132(x2)
  10325c:	09212023          	sw	x18,128(x2)
  103260:	00058413          	addi	x8,x11,0
  103264:	0005a583          	lw	x11,0(x11)
  103268:	00052503          	lw	x10,0(x10)
  10326c:	0105f613          	andi	x12,x11,16
  103270:	06061663          	bne	x12,x0,1032dc <_ZN42_$LT$$RF$T$u20$as$u20$core..fmt..Debug$GT$3fmt17h46f01b141542ed36E+0x90>
  103274:	00054483          	lbu	x9,0(x10)
  103278:	0205f513          	andi	x10,x11,32
  10327c:	0a051663          	bne	x10,x0,103328 <_ZN42_$LT$$RF$T$u20$as$u20$core..fmt..Debug$GT$3fmt17h46f01b141542ed36E+0xdc>
  103280:	06400513          	addi	x10,x0,100
  103284:	10a4ec63          	bltu	x9,x10,10339c <_ZN42_$LT$$RF$T$u20$as$u20$core..fmt..Debug$GT$3fmt17h46f01b141542ed36E+0x150>
  103288:	0ff4f513          	andi	x10,x9,255
  10328c:	06400593          	addi	x11,x0,100
  103290:	00000097          	auipc	x1,0x0
  103294:	664080e7          	jalr	x1,1636(x1) # 1038f4 <__udivsi3>
  103298:	00050913          	addi	x18,x10,0
  10329c:	06400593          	addi	x11,x0,100
  1032a0:	00000097          	auipc	x1,0x0
  1032a4:	65c080e7          	jalr	x1,1628(x1) # 1038fc <__mulsi3>
  1032a8:	40a48533          	sub	x10,x9,x10
  1032ac:	00151513          	slli	x10,x10,0x1
  1032b0:	0fe57513          	andi	x10,x10,254
  1032b4:	001045b7          	lui	x11,0x104
  1032b8:	d9e58593          	addi	x11,x11,-610 # 103d9e <.Lanon.463b8e1712595053e4e5ae8ec20c28a1.225>
  1032bc:	00b50533          	add	x10,x10,x11
  1032c0:	00150583          	lb	x11,1(x10)
  1032c4:	00054503          	lbu	x10,0(x10)
  1032c8:	02b10323          	sb	x11,38(x2)
  1032cc:	02a102a3          	sb	x10,37(x2)
  1032d0:	02400513          	addi	x10,x0,36
  1032d4:	00090493          	addi	x9,x18,0
  1032d8:	0d00006f          	jal	x0,1033a8 <_ZN42_$LT$$RF$T$u20$as$u20$core..fmt..Debug$GT$3fmt17h46f01b141542ed36E+0x15c>
  1032dc:	00054503          	lbu	x10,0(x10)
  1032e0:	00000593          	addi	x11,x0,0
  1032e4:	00010613          	addi	x12,x2,0
  1032e8:	00a00693          	addi	x13,x0,10
  1032ec:	0140006f          	jal	x0,103300 <_ZN42_$LT$$RF$T$u20$as$u20$core..fmt..Debug$GT$3fmt17h46f01b141542ed36E+0xb4>
  1032f0:	05778793          	addi	x15,x15,87
  1032f4:	06f70fa3          	sb	x15,127(x14)
  1032f8:	fff58593          	addi	x11,x11,-1
  1032fc:	06050863          	beq	x10,x0,10336c <_ZN42_$LT$$RF$T$u20$as$u20$core..fmt..Debug$GT$3fmt17h46f01b141542ed36E+0x120>
  103300:	00b60733          	add	x14,x12,x11
  103304:	00f57793          	andi	x15,x10,15
  103308:	00455513          	srli	x10,x10,0x4
  10330c:	00f57513          	andi	x10,x10,15
  103310:	fed7f0e3          	bgeu	x15,x13,1032f0 <_ZN42_$LT$$RF$T$u20$as$u20$core..fmt..Debug$GT$3fmt17h46f01b141542ed36E+0xa4>
  103314:	0307e793          	ori	x15,x15,48
  103318:	06f70fa3          	sb	x15,127(x14)
  10331c:	fff58593          	addi	x11,x11,-1
  103320:	fe0510e3          	bne	x10,x0,103300 <_ZN42_$LT$$RF$T$u20$as$u20$core..fmt..Debug$GT$3fmt17h46f01b141542ed36E+0xb4>
  103324:	0480006f          	jal	x0,10336c <_ZN42_$LT$$RF$T$u20$as$u20$core..fmt..Debug$GT$3fmt17h46f01b141542ed36E+0x120>
  103328:	00000593          	addi	x11,x0,0
  10332c:	00010613          	addi	x12,x2,0
  103330:	00a00513          	addi	x10,x0,10
  103334:	0140006f          	jal	x0,103348 <_ZN42_$LT$$RF$T$u20$as$u20$core..fmt..Debug$GT$3fmt17h46f01b141542ed36E+0xfc>
  103338:	03770713          	addi	x14,x14,55
  10333c:	06e68fa3          	sb	x14,127(x13)
  103340:	fff58593          	addi	x11,x11,-1
  103344:	02048463          	beq	x9,x0,10336c <_ZN42_$LT$$RF$T$u20$as$u20$core..fmt..Debug$GT$3fmt17h46f01b141542ed36E+0x120>
  103348:	00b606b3          	add	x13,x12,x11
  10334c:	00f4f713          	andi	x14,x9,15
  103350:	0044d793          	srli	x15,x9,0x4
  103354:	00f7f493          	andi	x9,x15,15
  103358:	fea770e3          	bgeu	x14,x10,103338 <_ZN42_$LT$$RF$T$u20$as$u20$core..fmt..Debug$GT$3fmt17h46f01b141542ed36E+0xec>
  10335c:	03076713          	ori	x14,x14,48
  103360:	06e68fa3          	sb	x14,127(x13)
  103364:	fff58593          	addi	x11,x11,-1
  103368:	fe0490e3          	bne	x9,x0,103348 <_ZN42_$LT$$RF$T$u20$as$u20$core..fmt..Debug$GT$3fmt17h46f01b141542ed36E+0xfc>
  10336c:	08058513          	addi	x10,x11,128
  103370:	08100693          	addi	x13,x0,129
  103374:	0ad57863          	bgeu	x10,x13,103424 <_ZN42_$LT$$RF$T$u20$as$u20$core..fmt..Debug$GT$3fmt17h46f01b141542ed36E+0x1d8>
  103378:	40b007b3          	sub	x15,x0,x11
  10337c:	00b60533          	add	x10,x12,x11
  103380:	08050713          	addi	x14,x10,128
  103384:	00104537          	lui	x10,0x104
  103388:	d9c50613          	addi	x12,x10,-612 # 103d9c <.Lanon.463b8e1712595053e4e5ae8ec20c28a1.222>
  10338c:	00100593          	addi	x11,x0,1
  103390:	00200693          	addi	x13,x0,2
  103394:	00040513          	addi	x10,x8,0
  103398:	06c0006f          	jal	x0,103404 <_ZN42_$LT$$RF$T$u20$as$u20$core..fmt..Debug$GT$3fmt17h46f01b141542ed36E+0x1b8>
  10339c:	00a00593          	addi	x11,x0,10
  1033a0:	02600513          	addi	x10,x0,38
  1033a4:	00b4fc63          	bgeu	x9,x11,1033bc <_ZN42_$LT$$RF$T$u20$as$u20$core..fmt..Debug$GT$3fmt17h46f01b141542ed36E+0x170>
  1033a8:	00010593          	addi	x11,x2,0
  1033ac:	00a585b3          	add	x11,x11,x10
  1033b0:	03048613          	addi	x12,x9,48
  1033b4:	00c58023          	sb	x12,0(x11)
  1033b8:	0280006f          	jal	x0,1033e0 <_ZN42_$LT$$RF$T$u20$as$u20$core..fmt..Debug$GT$3fmt17h46f01b141542ed36E+0x194>
  1033bc:	00149513          	slli	x10,x9,0x1
  1033c0:	001045b7          	lui	x11,0x104
  1033c4:	d9e58593          	addi	x11,x11,-610 # 103d9e <.Lanon.463b8e1712595053e4e5ae8ec20c28a1.225>
  1033c8:	00b50533          	add	x10,x10,x11
  1033cc:	00150583          	lb	x11,1(x10)
  1033d0:	00054503          	lbu	x10,0(x10)
  1033d4:	02b10323          	sb	x11,38(x2)
  1033d8:	02a102a3          	sb	x10,37(x2)
  1033dc:	02500513          	addi	x10,x0,37
  1033e0:	00010593          	addi	x11,x2,0
  1033e4:	00a58733          	add	x14,x11,x10
  1033e8:	02700593          	addi	x11,x0,39
  1033ec:	40a587b3          	sub	x15,x11,x10
  1033f0:	00104537          	lui	x10,0x104
  1033f4:	c0450613          	addi	x12,x10,-1020 # 103c04 <.Lanon.463b8e1712595053e4e5ae8ec20c28a1.33>
  1033f8:	00100593          	addi	x11,x0,1
  1033fc:	00040513          	addi	x10,x8,0
  103400:	00000693          	addi	x13,x0,0
  103404:	ffffe097          	auipc	x1,0xffffe
  103408:	348080e7          	jalr	x1,840(x1) # 10174c <_ZN4core3fmt9Formatter12pad_integral17he2541bb2ad863cd8E>
  10340c:	08012903          	lw	x18,128(x2)
  103410:	08412483          	lw	x9,132(x2)
  103414:	08812403          	lw	x8,136(x2)
  103418:	08c12083          	lw	x1,140(x2)
  10341c:	09010113          	addi	x2,x2,144
  103420:	00008067          	jalr	x0,0(x1)
  103424:	001045b7          	lui	x11,0x104
  103428:	d8c58613          	addi	x12,x11,-628 # 103d8c <.Lanon.463b8e1712595053e4e5ae8ec20c28a1.221>
  10342c:	08000593          	addi	x11,x0,128
  103430:	fffff097          	auipc	x1,0xfffff
  103434:	f58080e7          	jalr	x1,-168(x1) # 102388 <_ZN4core5slice5index26slice_start_index_len_fail17h808ec7d9fb05cfddE>
  103438:	c0001073          	unimp

0010343c <_ZN42_$LT$$RF$T$u20$as$u20$core..fmt..Debug$GT$3fmt17h85c43da40688ff9bE>:
  10343c:	00452603          	lw	x12,4(x10)
  103440:	00052503          	lw	x10,0(x10)
  103444:	00c62783          	lw	x15,12(x12)
  103448:	00078067          	jalr	x0,0(x15)

0010344c <_ZN42_$LT$$RF$T$u20$as$u20$core..fmt..Debug$GT$3fmt17h8bd4fab5741e2b92E>:
  10344c:	fe010113          	addi	x2,x2,-32
  103450:	00112e23          	sw	x1,28(x2)
  103454:	00812c23          	sw	x8,24(x2)
  103458:	00912a23          	sw	x9,20(x2)
  10345c:	00052603          	lw	x12,0(x10)
  103460:	00064503          	lbu	x10,0(x12)
  103464:	00100693          	addi	x13,x0,1
  103468:	00058413          	addi	x8,x11,0
  10346c:	0ed51a63          	bne	x10,x13,103560 <_ZN42_$LT$$RF$T$u20$as$u20$core..fmt..Debug$GT$3fmt17h8bd4fab5741e2b92E+0x114>
  103470:	01c42583          	lw	x11,28(x8)
  103474:	01842503          	lw	x10,24(x8)
  103478:	00c5a683          	lw	x13,12(x11)
  10347c:	00160493          	addi	x9,x12,1
  103480:	001045b7          	lui	x11,0x104
  103484:	c3458593          	addi	x11,x11,-972 # 103c34 <.Lanon.463b8e1712595053e4e5ae8ec20c28a1.141+0x2c>
  103488:	00400613          	addi	x12,x0,4
  10348c:	000680e7          	jalr	x1,0(x13)
  103490:	00812023          	sw	x8,0(x2)
  103494:	00a10423          	sb	x10,8(x2)
  103498:	00012223          	sw	x0,4(x2)
  10349c:	000104a3          	sb	x0,9(x2)
  1034a0:	00912823          	sw	x9,16(x2)
  1034a4:	00104537          	lui	x10,0x104
  1034a8:	d6050613          	addi	x12,x10,-672 # 103d60 <.Lanon.463b8e1712595053e4e5ae8ec20c28a1.211>
  1034ac:	00010513          	addi	x10,x2,0
  1034b0:	01010593          	addi	x11,x2,16
  1034b4:	ffffe097          	auipc	x1,0xffffe
  1034b8:	b40080e7          	jalr	x1,-1216(x1) # 100ff4 <_ZN4core3fmt8builders10DebugTuple5field17hc8a6916efd46120bE>
  1034bc:	00412503          	lw	x10,4(x2)
  1034c0:	00814583          	lbu	x11,8(x2)
  1034c4:	08050263          	beq	x10,x0,103548 <_ZN42_$LT$$RF$T$u20$as$u20$core..fmt..Debug$GT$3fmt17h8bd4fab5741e2b92E+0xfc>
  1034c8:	00100413          	addi	x8,x0,1
  1034cc:	06059a63          	bne	x11,x0,103540 <_ZN42_$LT$$RF$T$u20$as$u20$core..fmt..Debug$GT$3fmt17h8bd4fab5741e2b92E+0xf4>
  1034d0:	00914583          	lbu	x11,9(x2)
  1034d4:	fff50513          	addi	x10,x10,-1
  1034d8:	00a03533          	sltu	x10,x0,x10
  1034dc:	0015b593          	sltiu	x11,x11,1
  1034e0:	00b56533          	or	x10,x10,x11
  1034e4:	02051c63          	bne	x10,x0,10351c <_ZN42_$LT$$RF$T$u20$as$u20$core..fmt..Debug$GT$3fmt17h8bd4fab5741e2b92E+0xd0>
  1034e8:	00012503          	lw	x10,0(x2)
  1034ec:	00054583          	lbu	x11,0(x10)
  1034f0:	0045f593          	andi	x11,x11,4
  1034f4:	02059463          	bne	x11,x0,10351c <_ZN42_$LT$$RF$T$u20$as$u20$core..fmt..Debug$GT$3fmt17h8bd4fab5741e2b92E+0xd0>
  1034f8:	01c52583          	lw	x11,28(x10)
  1034fc:	01852503          	lw	x10,24(x10)
  103500:	00c5a683          	lw	x13,12(x11)
  103504:	001045b7          	lui	x11,0x104
  103508:	d5c58593          	addi	x11,x11,-676 # 103d5c <.Lanon.463b8e1712595053e4e5ae8ec20c28a1.205>
  10350c:	00100613          	addi	x12,x0,1
  103510:	00100413          	addi	x8,x0,1
  103514:	000680e7          	jalr	x1,0(x13)
  103518:	02051463          	bne	x10,x0,103540 <_ZN42_$LT$$RF$T$u20$as$u20$core..fmt..Debug$GT$3fmt17h8bd4fab5741e2b92E+0xf4>
  10351c:	00012503          	lw	x10,0(x2)
  103520:	01c52583          	lw	x11,28(x10)
  103524:	01852503          	lw	x10,24(x10)
  103528:	00c5a683          	lw	x13,12(x11)
  10352c:	001045b7          	lui	x11,0x104
  103530:	d5d58593          	addi	x11,x11,-675 # 103d5d <.Lanon.463b8e1712595053e4e5ae8ec20c28a1.206>
  103534:	00100613          	addi	x12,x0,1
  103538:	000680e7          	jalr	x1,0(x13)
  10353c:	00050413          	addi	x8,x10,0
  103540:	00810423          	sb	x8,8(x2)
  103544:	00040593          	addi	x11,x8,0
  103548:	00b03533          	sltu	x10,x0,x11
  10354c:	01412483          	lw	x9,20(x2)
  103550:	01812403          	lw	x8,24(x2)
  103554:	01c12083          	lw	x1,28(x2)
  103558:	02010113          	addi	x2,x2,32
  10355c:	00008067          	jalr	x0,0(x1)
  103560:	01c42583          	lw	x11,28(x8)
  103564:	01842503          	lw	x10,24(x8)
  103568:	00c5a783          	lw	x15,12(x11)
  10356c:	001045b7          	lui	x11,0x104
  103570:	c3c58593          	addi	x11,x11,-964 # 103c3c <.Lanon.463b8e1712595053e4e5ae8ec20c28a1.141+0x34>
  103574:	00400613          	addi	x12,x0,4
  103578:	01412483          	lw	x9,20(x2)
  10357c:	01812403          	lw	x8,24(x2)
  103580:	01c12083          	lw	x1,28(x2)
  103584:	02010113          	addi	x2,x2,32
  103588:	00078067          	jalr	x0,0(x15)

0010358c <_ZN42_$LT$$RF$T$u20$as$u20$core..fmt..Debug$GT$3fmt17hdb7d66fd23c8eba4E>:
  10358c:	00052503          	lw	x10,0(x10)
  103590:	00000317          	auipc	x6,0x0
  103594:	96c30067          	jalr	x0,-1684(x6) # 102efc <_ZN4core3fmt3num52_$LT$impl$u20$core..fmt..Debug$u20$for$u20$usize$GT$3fmt17h0c9ce5cc75d55056E>

00103598 <_ZN44_$LT$$RF$T$u20$as$u20$core..fmt..Display$GT$3fmt17h8e3360572887809bE>:
  103598:	00052683          	lw	x13,0(x10)
  10359c:	00452603          	lw	x12,4(x10)
  1035a0:	00058513          	addi	x10,x11,0
  1035a4:	00068593          	addi	x11,x13,0
  1035a8:	ffffe317          	auipc	x6,0xffffe
  1035ac:	5c830067          	jalr	x0,1480(x6) # 101b70 <_ZN4core3fmt9Formatter3pad17h905844d83a06afd2E>

001035b0 <_ZN64_$LT$core..str..error..Utf8Error$u20$as$u20$core..fmt..Debug$GT$3fmt17h5bea7485591d5891E>:
  1035b0:	fe010113          	addi	x2,x2,-32
  1035b4:	00112e23          	sw	x1,28(x2)
  1035b8:	00812c23          	sw	x8,24(x2)
  1035bc:	00912a23          	sw	x9,20(x2)
  1035c0:	01212823          	sw	x18,16(x2)
  1035c4:	00058413          	addi	x8,x11,0
  1035c8:	01c5a583          	lw	x11,28(x11)
  1035cc:	01842683          	lw	x13,24(x8)
  1035d0:	00c5a703          	lw	x14,12(x11)
  1035d4:	00050493          	addi	x9,x10,0
  1035d8:	00450913          	addi	x18,x10,4
  1035dc:	00104537          	lui	x10,0x104
  1035e0:	74850593          	addi	x11,x10,1864 # 104748 <.Lanon.463b8e1712595053e4e5ae8ec20c28a1.568>
  1035e4:	00900613          	addi	x12,x0,9
  1035e8:	00068513          	addi	x10,x13,0
  1035ec:	000700e7          	jalr	x1,0(x14)
  1035f0:	00a12223          	sw	x10,4(x2)
  1035f4:	00812023          	sw	x8,0(x2)
  1035f8:	00912623          	sw	x9,12(x2)
  1035fc:	00104537          	lui	x10,0x104
  103600:	75150593          	addi	x11,x10,1873 # 104751 <.Lanon.463b8e1712595053e4e5ae8ec20c28a1.569>
  103604:	00104537          	lui	x10,0x104
  103608:	73850713          	addi	x14,x10,1848 # 104738 <.Lanon.463b8e1712595053e4e5ae8ec20c28a1.421>
  10360c:	00010413          	addi	x8,x2,0
  103610:	00c10693          	addi	x13,x2,12
  103614:	00b00613          	addi	x12,x0,11
  103618:	00040513          	addi	x10,x8,0
  10361c:	ffffd097          	auipc	x1,0xffffd
  103620:	7b0080e7          	jalr	x1,1968(x1) # 100dcc <_ZN4core3fmt8builders11DebugStruct5field17hff0f4c3e6bd37dc5E>
  103624:	01212623          	sw	x18,12(x2)
  103628:	00104537          	lui	x10,0x104
  10362c:	75c50593          	addi	x11,x10,1884 # 10475c <.Lanon.463b8e1712595053e4e5ae8ec20c28a1.570>
  103630:	00104537          	lui	x10,0x104
  103634:	76850713          	addi	x14,x10,1896 # 104768 <.Lanon.463b8e1712595053e4e5ae8ec20c28a1.571>
  103638:	00c10693          	addi	x13,x2,12
  10363c:	00900613          	addi	x12,x0,9
  103640:	00040513          	addi	x10,x8,0
  103644:	ffffd097          	auipc	x1,0xffffd
  103648:	788080e7          	jalr	x1,1928(x1) # 100dcc <_ZN4core3fmt8builders11DebugStruct5field17hff0f4c3e6bd37dc5E>
  10364c:	00514503          	lbu	x10,5(x2)
  103650:	00414583          	lbu	x11,4(x2)
  103654:	04050863          	beq	x10,x0,1036a4 <_ZN64_$LT$core..str..error..Utf8Error$u20$as$u20$core..fmt..Debug$GT$3fmt17h5bea7485591d5891E+0xf4>
  103658:	00100513          	addi	x10,x0,1
  10365c:	04059063          	bne	x11,x0,10369c <_ZN64_$LT$core..str..error..Utf8Error$u20$as$u20$core..fmt..Debug$GT$3fmt17h5bea7485591d5891E+0xec>
  103660:	00012503          	lw	x10,0(x2)
  103664:	01c52583          	lw	x11,28(x10)
  103668:	00054603          	lbu	x12,0(x10)
  10366c:	01852503          	lw	x10,24(x10)
  103670:	00c5a683          	lw	x13,12(x11)
  103674:	00467593          	andi	x11,x12,4
  103678:	00059a63          	bne	x11,x0,10368c <_ZN64_$LT$core..str..error..Utf8Error$u20$as$u20$core..fmt..Debug$GT$3fmt17h5bea7485591d5891E+0xdc>
  10367c:	001045b7          	lui	x11,0x104
  103680:	d5758593          	addi	x11,x11,-681 # 103d57 <.Lanon.463b8e1712595053e4e5ae8ec20c28a1.202>
  103684:	00200613          	addi	x12,x0,2
  103688:	0100006f          	jal	x0,103698 <_ZN64_$LT$core..str..error..Utf8Error$u20$as$u20$core..fmt..Debug$GT$3fmt17h5bea7485591d5891E+0xe8>
  10368c:	001045b7          	lui	x11,0x104
  103690:	d5658593          	addi	x11,x11,-682 # 103d56 <.Lanon.463b8e1712595053e4e5ae8ec20c28a1.201>
  103694:	00100613          	addi	x12,x0,1
  103698:	000680e7          	jalr	x1,0(x13)
  10369c:	00a10223          	sb	x10,4(x2)
  1036a0:	00050593          	addi	x11,x10,0
  1036a4:	00b03533          	sltu	x10,x0,x11
  1036a8:	01012903          	lw	x18,16(x2)
  1036ac:	01412483          	lw	x9,20(x2)
  1036b0:	01812403          	lw	x8,24(x2)
  1036b4:	01c12083          	lw	x1,28(x2)
  1036b8:	02010113          	addi	x2,x2,32
  1036bc:	00008067          	jalr	x0,0(x1)

001036c0 <_ZN4core7unicode12unicode_data15grapheme_extend6lookup17hf174abb294badd09E>:
  1036c0:	ff010113          	addi	x2,x2,-16
  1036c4:	00112623          	sw	x1,12(x2)
  1036c8:	00000613          	addi	x12,x0,0
  1036cc:	000115b7          	lui	x11,0x11
  1036d0:	d2458693          	addi	x13,x11,-732 # 10d24 <_hart_stack_size+0x10524>
  1036d4:	00b51593          	slli	x11,x10,0xb
  1036d8:	00d56463          	bltu	x10,x13,1036e0 <_ZN4core7unicode12unicode_data15grapheme_extend6lookup17hf174abb294badd09E+0x20>
  1036dc:	00f00613          	addi	x12,x0,15
  1036e0:	00860713          	addi	x14,x12,8
  1036e4:	00271793          	slli	x15,x14,0x2
  1036e8:	001046b7          	lui	x13,0x104
  1036ec:	77868693          	addi	x13,x13,1912 # 104778 <_ZN4core7unicode12unicode_data15grapheme_extend17SHORT_OFFSET_RUNS17h15d43e6f35ea7ff0E>
  1036f0:	00d787b3          	add	x15,x15,x13
  1036f4:	0007a783          	lw	x15,0(x15)
  1036f8:	00b79793          	slli	x15,x15,0xb
  1036fc:	00f5e463          	bltu	x11,x15,103704 <_ZN4core7unicode12unicode_data15grapheme_extend6lookup17hf174abb294badd09E+0x44>
  103700:	00070613          	addi	x12,x14,0
  103704:	00460713          	addi	x14,x12,4
  103708:	00271793          	slli	x15,x14,0x2
  10370c:	00d787b3          	add	x15,x15,x13
  103710:	0007a783          	lw	x15,0(x15)
  103714:	00b79793          	slli	x15,x15,0xb
  103718:	00f5e463          	bltu	x11,x15,103720 <_ZN4core7unicode12unicode_data15grapheme_extend6lookup17hf174abb294badd09E+0x60>
  10371c:	00070613          	addi	x12,x14,0
  103720:	00260713          	addi	x14,x12,2
  103724:	00271793          	slli	x15,x14,0x2
  103728:	00d787b3          	add	x15,x15,x13
  10372c:	0007a783          	lw	x15,0(x15)
  103730:	00b79793          	slli	x15,x15,0xb
  103734:	00f5e463          	bltu	x11,x15,10373c <_ZN4core7unicode12unicode_data15grapheme_extend6lookup17hf174abb294badd09E+0x7c>
  103738:	00070613          	addi	x12,x14,0
  10373c:	00160713          	addi	x14,x12,1
  103740:	00271793          	slli	x15,x14,0x2
  103744:	00d787b3          	add	x15,x15,x13
  103748:	0007a783          	lw	x15,0(x15)
  10374c:	00b79793          	slli	x15,x15,0xb
  103750:	00f5e463          	bltu	x11,x15,103758 <_ZN4core7unicode12unicode_data15grapheme_extend6lookup17hf174abb294badd09E+0x98>
  103754:	00070613          	addi	x12,x14,0
  103758:	00261713          	slli	x14,x12,0x2
  10375c:	00d706b3          	add	x13,x14,x13
  103760:	0006a683          	lw	x13,0(x13)
  103764:	00b69693          	slli	x13,x13,0xb
  103768:	00b6b733          	sltu	x14,x13,x11
  10376c:	00b6c5b3          	xor	x11,x13,x11
  103770:	0015b593          	sltiu	x11,x11,1
  103774:	00e585b3          	add	x11,x11,x14
  103778:	00c58733          	add	x14,x11,x12
  10377c:	01e00693          	addi	x13,x0,30
  103780:	0ee6e063          	bltu	x13,x14,103860 <_ZN4core7unicode12unicode_data15grapheme_extend6lookup17hf174abb294badd09E+0x1a0>
  103784:	001045b7          	lui	x11,0x104
  103788:	77858613          	addi	x12,x11,1912 # 104778 <_ZN4core7unicode12unicode_data15grapheme_extend17SHORT_OFFSET_RUNS17h15d43e6f35ea7ff0E>
  10378c:	00271793          	slli	x15,x14,0x2
  103790:	2b100593          	addi	x11,x0,689
  103794:	00d70863          	beq	x14,x13,1037a4 <_ZN4core7unicode12unicode_data15grapheme_extend6lookup17hf174abb294badd09E+0xe4>
  103798:	00f605b3          	add	x11,x12,x15
  10379c:	0045a583          	lw	x11,4(x11)
  1037a0:	0155d593          	srli	x11,x11,0x15
  1037a4:	fff70693          	addi	x13,x14,-1
  1037a8:	00d77663          	bgeu	x14,x13,1037b4 <_ZN4core7unicode12unicode_data15grapheme_extend6lookup17hf174abb294badd09E+0xf4>
  1037ac:	00000713          	addi	x14,x0,0
  1037b0:	02c0006f          	jal	x0,1037dc <_ZN4core7unicode12unicode_data15grapheme_extend6lookup17hf174abb294badd09E+0x11c>
  1037b4:	01f00713          	addi	x14,x0,31
  1037b8:	0ce6f263          	bgeu	x13,x14,10387c <_ZN4core7unicode12unicode_data15grapheme_extend6lookup17hf174abb294badd09E+0x1bc>
  1037bc:	00104737          	lui	x14,0x104
  1037c0:	77870713          	addi	x14,x14,1912 # 104778 <_ZN4core7unicode12unicode_data15grapheme_extend17SHORT_OFFSET_RUNS17h15d43e6f35ea7ff0E>
  1037c4:	00269693          	slli	x13,x13,0x2
  1037c8:	00e686b3          	add	x13,x13,x14
  1037cc:	0006a683          	lw	x13,0(x13)
  1037d0:	00200737          	lui	x14,0x200
  1037d4:	fff70713          	addi	x14,x14,-1 # 1fffff <_sidata+0xfb527>
  1037d8:	00e6f733          	and	x14,x13,x14
  1037dc:	00c78633          	add	x12,x15,x12
  1037e0:	00062603          	lw	x12,0(x12)
  1037e4:	01565613          	srli	x12,x12,0x15
  1037e8:	00160693          	addi	x13,x12,1
  1037ec:	04d58463          	beq	x11,x13,103834 <_ZN4core7unicode12unicode_data15grapheme_extend6lookup17hf174abb294badd09E+0x174>
  1037f0:	2b100793          	addi	x15,x0,689
  1037f4:	00060813          	addi	x16,x12,0
  1037f8:	00c7e463          	bltu	x15,x12,103800 <_ZN4core7unicode12unicode_data15grapheme_extend6lookup17hf174abb294badd09E+0x140>
  1037fc:	2b100813          	addi	x16,x0,689
  103800:	00000793          	addi	x15,x0,0
  103804:	40e50733          	sub	x14,x10,x14
  103808:	fff58513          	addi	x10,x11,-1
  10380c:	001045b7          	lui	x11,0x104
  103810:	7f458593          	addi	x11,x11,2036 # 1047f4 <_ZN4core7unicode12unicode_data15grapheme_extend7OFFSETS17h8dc0b612967237deE>
  103814:	02c80863          	beq	x16,x12,103844 <_ZN4core7unicode12unicode_data15grapheme_extend6lookup17hf174abb294badd09E+0x184>
  103818:	00b606b3          	add	x13,x12,x11
  10381c:	0006c683          	lbu	x13,0(x13)
  103820:	00d787b3          	add	x15,x15,x13
  103824:	00f76863          	bltu	x14,x15,103834 <_ZN4core7unicode12unicode_data15grapheme_extend6lookup17hf174abb294badd09E+0x174>
  103828:	00160613          	addi	x12,x12,1
  10382c:	fec514e3          	bne	x10,x12,103814 <_ZN4core7unicode12unicode_data15grapheme_extend6lookup17hf174abb294badd09E+0x154>
  103830:	00050613          	addi	x12,x10,0
  103834:	00167513          	andi	x10,x12,1
  103838:	00c12083          	lw	x1,12(x2)
  10383c:	01010113          	addi	x2,x2,16
  103840:	00008067          	jalr	x0,0(x1)
  103844:	00104537          	lui	x10,0x104
  103848:	71850613          	addi	x12,x10,1816 # 104718 <.Lanon.463b8e1712595053e4e5ae8ec20c28a1.358>
  10384c:	2b100593          	addi	x11,x0,689
  103850:	00080513          	addi	x10,x16,0
  103854:	ffffd097          	auipc	x1,0xffffd
  103858:	210080e7          	jalr	x1,528(x1) # 100a64 <_ZN4core9panicking18panic_bounds_check17h1271d016dbbb83a7E>
  10385c:	c0001073          	unimp
  103860:	00104537          	lui	x10,0x104
  103864:	70850613          	addi	x12,x10,1800 # 104708 <.Lanon.463b8e1712595053e4e5ae8ec20c28a1.357>
  103868:	01f00593          	addi	x11,x0,31
  10386c:	00070513          	addi	x10,x14,0
  103870:	ffffd097          	auipc	x1,0xffffd
  103874:	1f4080e7          	jalr	x1,500(x1) # 100a64 <_ZN4core9panicking18panic_bounds_check17h1271d016dbbb83a7E>
  103878:	c0001073          	unimp
  10387c:	00104537          	lui	x10,0x104
  103880:	72850613          	addi	x12,x10,1832 # 104728 <.Lanon.463b8e1712595053e4e5ae8ec20c28a1.359>
  103884:	01f00593          	addi	x11,x0,31
  103888:	00068513          	addi	x10,x13,0
  10388c:	ffffd097          	auipc	x1,0xffffd
  103890:	1d8080e7          	jalr	x1,472(x1) # 100a64 <_ZN4core9panicking18panic_bounds_check17h1271d016dbbb83a7E>
  103894:	c0001073          	unimp

00103898 <rust_begin_unwind>:
  103898:	0330000f          	fence	rw,rw
  10389c:	0000006f          	jal	x0,10389c <rust_begin_unwind+0x4>

001038a0 <__divsi3>:
  1038a0:	ff010113          	addi	x2,x2,-16
  1038a4:	00112623          	sw	x1,12(x2)
  1038a8:	01f5d613          	srli	x12,x11,0x1f
  1038ac:	00054863          	blt	x10,x0,1038bc <__divsi3+0x1c>
  1038b0:	02060863          	beq	x12,x0,1038e0 <__divsi3+0x40>
  1038b4:	40b005b3          	sub	x11,x0,x11
  1038b8:	00c0006f          	jal	x0,1038c4 <__divsi3+0x24>
  1038bc:	40a00533          	sub	x10,x0,x10
  1038c0:	00061e63          	bne	x12,x0,1038dc <__divsi3+0x3c>
  1038c4:	00000097          	auipc	x1,0x0
  1038c8:	064080e7          	jalr	x1,100(x1) # 103928 <_ZN17compiler_builtins3int19specialized_div_rem11u32_div_rem17hce43cd8321e99150E>
  1038cc:	40a00533          	sub	x10,x0,x10
  1038d0:	00c12083          	lw	x1,12(x2)
  1038d4:	01010113          	addi	x2,x2,16
  1038d8:	00008067          	jalr	x0,0(x1)
  1038dc:	40b005b3          	sub	x11,x0,x11
  1038e0:	00000097          	auipc	x1,0x0
  1038e4:	048080e7          	jalr	x1,72(x1) # 103928 <_ZN17compiler_builtins3int19specialized_div_rem11u32_div_rem17hce43cd8321e99150E>
  1038e8:	00c12083          	lw	x1,12(x2)
  1038ec:	01010113          	addi	x2,x2,16
  1038f0:	00008067          	jalr	x0,0(x1)

001038f4 <__udivsi3>:
  1038f4:	00000317          	auipc	x6,0x0
  1038f8:	03430067          	jalr	x0,52(x6) # 103928 <_ZN17compiler_builtins3int19specialized_div_rem11u32_div_rem17hce43cd8321e99150E>

001038fc <__mulsi3>:
  1038fc:	00000613          	addi	x12,x0,0
  103900:	02050063          	beq	x10,x0,103920 <__mulsi3+0x24>
  103904:	00157693          	andi	x13,x10,1
  103908:	40d006b3          	sub	x13,x0,x13
  10390c:	00b6f6b3          	and	x13,x13,x11
  103910:	00c68633          	add	x12,x13,x12
  103914:	00155513          	srli	x10,x10,0x1
  103918:	00159593          	slli	x11,x11,0x1
  10391c:	fe0514e3          	bne	x10,x0,103904 <__mulsi3+0x8>
  103920:	00060513          	addi	x10,x12,0
  103924:	00008067          	jalr	x0,0(x1)

00103928 <_ZN17compiler_builtins3int19specialized_div_rem11u32_div_rem17hce43cd8321e99150E>:
  103928:	00050613          	addi	x12,x10,0
  10392c:	00b57863          	bgeu	x10,x11,10393c <_ZN17compiler_builtins3int19specialized_div_rem11u32_div_rem17hce43cd8321e99150E+0x14>
  103930:	00000513          	addi	x10,x0,0
  103934:	00060593          	addi	x11,x12,0
  103938:	00008067          	jalr	x0,0(x1)
  10393c:	01065713          	srli	x14,x12,0x10
  103940:	00b73533          	sltu	x10,x14,x11
  103944:	00154693          	xori	x13,x10,1
  103948:	00060513          	addi	x10,x12,0
  10394c:	00b76463          	bltu	x14,x11,103954 <_ZN17compiler_builtins3int19specialized_div_rem11u32_div_rem17hce43cd8321e99150E+0x2c>
  103950:	00070513          	addi	x10,x14,0
  103954:	00469693          	slli	x13,x13,0x4
  103958:	00855793          	srli	x15,x10,0x8
  10395c:	00b7b733          	sltu	x14,x15,x11
  103960:	00174713          	xori	x14,x14,1
  103964:	00b7e463          	bltu	x15,x11,10396c <_ZN17compiler_builtins3int19specialized_div_rem11u32_div_rem17hce43cd8321e99150E+0x44>
  103968:	00078513          	addi	x10,x15,0
  10396c:	00371713          	slli	x14,x14,0x3
  103970:	00d766b3          	or	x13,x14,x13
  103974:	00455793          	srli	x15,x10,0x4
  103978:	00b7b733          	sltu	x14,x15,x11
  10397c:	00174713          	xori	x14,x14,1
  103980:	00b7e463          	bltu	x15,x11,103988 <_ZN17compiler_builtins3int19specialized_div_rem11u32_div_rem17hce43cd8321e99150E+0x60>
  103984:	00078513          	addi	x10,x15,0
  103988:	00271713          	slli	x14,x14,0x2
  10398c:	00e6e6b3          	or	x13,x13,x14
  103990:	00255793          	srli	x15,x10,0x2
  103994:	00b7b733          	sltu	x14,x15,x11
  103998:	00174713          	xori	x14,x14,1
  10399c:	00b7e463          	bltu	x15,x11,1039a4 <_ZN17compiler_builtins3int19specialized_div_rem11u32_div_rem17hce43cd8321e99150E+0x7c>
  1039a0:	00078513          	addi	x10,x15,0
  1039a4:	00171713          	slli	x14,x14,0x1
  1039a8:	00e6e6b3          	or	x13,x13,x14
  1039ac:	00155513          	srli	x10,x10,0x1
  1039b0:	00b53533          	sltu	x10,x10,x11
  1039b4:	00154513          	xori	x10,x10,1
  1039b8:	00a6e6b3          	or	x13,x13,x10
  1039bc:	00d59733          	sll	x14,x11,x13
  1039c0:	40e60633          	sub	x12,x12,x14
  1039c4:	00100513          	addi	x10,x0,1
  1039c8:	00d51533          	sll	x10,x10,x13
  1039cc:	04b66063          	bltu	x12,x11,103a0c <_ZN17compiler_builtins3int19specialized_div_rem11u32_div_rem17hce43cd8321e99150E+0xe4>
  1039d0:	fff00893          	addi	x17,x0,-1
  1039d4:	00e8d663          	bge	x17,x14,1039e0 <_ZN17compiler_builtins3int19specialized_div_rem11u32_div_rem17hce43cd8321e99150E+0xb8>
  1039d8:	00050813          	addi	x16,x10,0
  1039dc:	0500006f          	jal	x0,103a2c <_ZN17compiler_builtins3int19specialized_div_rem11u32_div_rem17hce43cd8321e99150E+0x104>
  1039e0:	00175713          	srli	x14,x14,0x1
  1039e4:	fff68693          	addi	x13,x13,-1
  1039e8:	00100793          	addi	x15,x0,1
  1039ec:	00d79833          	sll	x16,x15,x13
  1039f0:	40e607b3          	sub	x15,x12,x14
  1039f4:	00080293          	addi	x5,x16,0
  1039f8:	00f8de63          	bge	x17,x15,103a14 <_ZN17compiler_builtins3int19specialized_div_rem11u32_div_rem17hce43cd8321e99150E+0xec>
  1039fc:	02f8d063          	bge	x17,x15,103a1c <_ZN17compiler_builtins3int19specialized_div_rem11u32_div_rem17hce43cd8321e99150E+0xf4>
  103a00:	00a2e533          	or	x10,x5,x10
  103a04:	00078613          	addi	x12,x15,0
  103a08:	02b7f263          	bgeu	x15,x11,103a2c <_ZN17compiler_builtins3int19specialized_div_rem11u32_div_rem17hce43cd8321e99150E+0x104>
  103a0c:	00060593          	addi	x11,x12,0
  103a10:	00008067          	jalr	x0,0(x1)
  103a14:	00000293          	addi	x5,x0,0
  103a18:	fef8c4e3          	blt	x17,x15,103a00 <_ZN17compiler_builtins3int19specialized_div_rem11u32_div_rem17hce43cd8321e99150E+0xd8>
  103a1c:	00060793          	addi	x15,x12,0
  103a20:	00a2e533          	or	x10,x5,x10
  103a24:	00078613          	addi	x12,x15,0
  103a28:	feb7e2e3          	bltu	x15,x11,103a0c <_ZN17compiler_builtins3int19specialized_div_rem11u32_div_rem17hce43cd8321e99150E+0xe4>
  103a2c:	fff80813          	addi	x16,x16,-1
  103a30:	02068463          	beq	x13,x0,103a58 <_ZN17compiler_builtins3int19specialized_div_rem11u32_div_rem17hce43cd8321e99150E+0x130>
  103a34:	fff70713          	addi	x14,x14,-1
  103a38:	00068793          	addi	x15,x13,0
  103a3c:	fff78793          	addi	x15,x15,-1
  103a40:	00161613          	slli	x12,x12,0x1
  103a44:	40e60633          	sub	x12,x12,x14
  103a48:	41f65593          	srai	x11,x12,0x1f
  103a4c:	00e5f5b3          	and	x11,x11,x14
  103a50:	00c58633          	add	x12,x11,x12
  103a54:	fe0794e3          	bne	x15,x0,103a3c <_ZN17compiler_builtins3int19specialized_div_rem11u32_div_rem17hce43cd8321e99150E+0x114>
  103a58:	010675b3          	and	x11,x12,x16
  103a5c:	00a5e533          	or	x10,x11,x10
  103a60:	00d65633          	srl	x12,x12,x13
  103a64:	00060593          	addi	x11,x12,0
  103a68:	00008067          	jalr	x0,0(x1)

00103a6c <bcmp>:
  103a6c:	02060063          	beq	x12,x0,103a8c <bcmp+0x20>
  103a70:	00054683          	lbu	x13,0(x10)
  103a74:	0005c703          	lbu	x14,0(x11)
  103a78:	00e69e63          	bne	x13,x14,103a94 <bcmp+0x28>
  103a7c:	fff60613          	addi	x12,x12,-1
  103a80:	00158593          	addi	x11,x11,1
  103a84:	00150513          	addi	x10,x10,1
  103a88:	fe0614e3          	bne	x12,x0,103a70 <bcmp+0x4>
  103a8c:	00000513          	addi	x10,x0,0
  103a90:	00008067          	jalr	x0,0(x1)
  103a94:	40e68533          	sub	x10,x13,x14
  103a98:	00008067          	jalr	x0,0(x1)

00103a9c <DefaultExceptionHandler>:
  103a9c:	0000006f          	jal	x0,103a9c <DefaultExceptionHandler>

00103aa0 <DefaultInterruptHandler>:
  103aa0:	0000006f          	jal	x0,103aa0 <DefaultInterruptHandler>

00103aa4 <default_pre_init>:
  103aa4:	00008067          	jalr	x0,0(x1)

00103aa8 <default_mp_hook>:
  103aa8:	ff010113          	addi	x2,x2,-16
  103aac:	00112623          	sw	x1,12(x2)
  103ab0:	00000097          	auipc	x1,0x0
  103ab4:	044080e7          	jalr	x1,68(x1) # 103af4 <__read_mhartid>
  103ab8:	00050863          	beq	x10,x0,103ac8 <default_mp_hook+0x20>
  103abc:	00000097          	auipc	x1,0x0
  103ac0:	030080e7          	jalr	x1,48(x1) # 103aec <__wfi>
  103ac4:	ff9ff06f          	jal	x0,103abc <default_mp_hook+0x14>
  103ac8:	00100513          	addi	x10,x0,1
  103acc:	00c12083          	lw	x1,12(x2)
  103ad0:	01010113          	addi	x2,x2,16
  103ad4:	00008067          	jalr	x0,0(x1)

00103ad8 <_ZN5riscv8register6mcause6Mcause4code17he5f1739761dd4736E>:
  103ad8:	00052503          	lw	x10,0(x10)
  103adc:	800005b7          	lui	x11,0x80000
  103ae0:	fff58593          	addi	x11,x11,-1 # 7fffffff <_sstack+0x7dffffff>
  103ae4:	00b57533          	and	x10,x10,x11
  103ae8:	00008067          	jalr	x0,0(x1)

00103aec <__wfi>:
  103aec:	10500073          	wfi
  103af0:	00008067          	jalr	x0,0(x1)

00103af4 <__read_mhartid>:
  103af4:	f1402573          	csrrs	x10,mhartid,x0
  103af8:	00008067          	jalr	x0,0(x1)

00103afc <__read_mcause>:
  103afc:	34202573          	csrrs	x10,mcause,x0
  103b00:	00008067          	jalr	x0,0(x1)

00103b04 <_setup_interrupts>:
  103b04:	ffffc297          	auipc	x5,0xffffc
  103b08:	65828293          	addi	x5,x5,1624 # 10015c <_start_trap>
  103b0c:	30529073          	csrrw	x0,mtvec,x5
  103b10:	00008067          	jalr	x0,0(x1)

00103b14 <abort>:
  103b14:	0000006f          	jal	x0,103b14 <abort>
