
hello.elf:     file format elf32-littleriscv


Disassembly of section .text:

00100000 <_start>:
  100000:	001000b7          	lui	x1,0x100
  100004:	00808067          	jalr	x0,8(x1) # 100008 <_abs_start>

00100008 <_abs_start>:
  100008:	30405073          	csrrwi	x0,mie,0
  10000c:	34405073          	csrrwi	x0,mip,0
  100010:	00000093          	addi	x1,x0,0
  100014:	00000113          	addi	x2,x0,0
  100018:	00000193          	addi	x3,x0,0
  10001c:	00000213          	addi	x4,x0,0
  100020:	00000293          	addi	x5,x0,0
  100024:	00000313          	addi	x6,x0,0
  100028:	00000393          	addi	x7,x0,0
  10002c:	00000413          	addi	x8,x0,0
  100030:	00000493          	addi	x9,x0,0
  100034:	00000513          	addi	x10,x0,0
  100038:	00000593          	addi	x11,x0,0
  10003c:	00000613          	addi	x12,x0,0
  100040:	00000693          	addi	x13,x0,0
  100044:	00000713          	addi	x14,x0,0
  100048:	00000793          	addi	x15,x0,0
  10004c:	00000813          	addi	x16,x0,0
  100050:	00000893          	addi	x17,x0,0
  100054:	00000913          	addi	x18,x0,0
  100058:	00000993          	addi	x19,x0,0
  10005c:	00000a13          	addi	x20,x0,0
  100060:	00000a93          	addi	x21,x0,0
  100064:	00000b13          	addi	x22,x0,0
  100068:	00000b93          	addi	x23,x0,0
  10006c:	00000c13          	addi	x24,x0,0
  100070:	00000c93          	addi	x25,x0,0
  100074:	00000d13          	addi	x26,x0,0
  100078:	00000d93          	addi	x27,x0,0
  10007c:	00000e13          	addi	x28,x0,0
  100080:	00000e93          	addi	x29,x0,0
  100084:	00000f13          	addi	x30,x0,0
  100088:	00000f93          	addi	x31,x0,0
  10008c:	00100197          	auipc	x3,0x100
  100090:	77418193          	addi	x3,x3,1908 # 200800 <__global_pointer$>
  100094:	f1402673          	csrrs	x12,mhartid,x0
  100098:	000002b7          	lui	x5,0x0
  10009c:	00028293          	addi	x5,x5,0 # 0 <_heap_size>
  1000a0:	00c2f463          	bgeu	x5,x12,1000a8 <_abs_start+0xa0>
  1000a4:	1ec0106f          	jal	x0,101290 <abort>
  1000a8:	02100117          	auipc	x2,0x2100
  1000ac:	f5810113          	addi	x2,x2,-168 # 2200000 <_sstack>
  1000b0:	000012b7          	lui	x5,0x1
  1000b4:	80028293          	addi	x5,x5,-2048 # 800 <_hart_stack_size>
  1000b8:	00060c63          	beq	x12,x0,1000d0 <.L2^B1>
  1000bc:	00060313          	addi	x6,x12,0
  1000c0:	00028393          	addi	x7,x5,0

001000c4 <.L1^B1>:
  1000c4:	007282b3          	add	x5,x5,x7
  1000c8:	fff30313          	addi	x6,x6,-1
  1000cc:	fe031ce3          	bne	x6,x0,1000c4 <.L1^B1>

001000d0 <.L2^B1>:
  1000d0:	40510133          	sub	x2,x2,x5
  1000d4:	00010433          	add	x8,x2,x0
  1000d8:	0040006f          	jal	x0,1000dc <_start_rust>

001000dc <_start_rust>:
  1000dc:	ff010113          	addi	x2,x2,-16
  1000e0:	00112623          	sw	x1,12(x2)
  1000e4:	00001097          	auipc	x1,0x1
  1000e8:	fdc080e7          	jalr	x1,-36(x1) # 1010c0 <default_mp_hook>
  1000ec:	04050e63          	beq	x10,x0,100148 <_start_rust+0x6c>
  1000f0:	00001097          	auipc	x1,0x1
  1000f4:	fcc080e7          	jalr	x1,-52(x1) # 1010bc <default_pre_init>
  1000f8:	00200537          	lui	x10,0x200
  1000fc:	00050513          	addi	x10,x10,0 # 200000 <_ebss>
  100100:	002005b7          	lui	x11,0x200
  100104:	00058593          	addi	x11,x11,0 # 200000 <_ebss>
  100108:	00a5f863          	bgeu	x11,x10,100118 <_start_rust+0x3c>
  10010c:	0005a023          	sw	x0,0(x11)
  100110:	00458593          	addi	x11,x11,4
  100114:	fea5ece3          	bltu	x11,x10,10010c <_start_rust+0x30>
  100118:	00200537          	lui	x10,0x200
  10011c:	00050513          	addi	x10,x10,0 # 200000 <_ebss>
  100120:	002005b7          	lui	x11,0x200
  100124:	00058593          	addi	x11,x11,0 # 200000 <_ebss>
  100128:	02a5f063          	bgeu	x11,x10,100148 <_start_rust+0x6c>
  10012c:	00101637          	lui	x12,0x101
  100130:	40860613          	addi	x12,x12,1032 # 101408 <_sidata>
  100134:	00062683          	lw	x13,0(x12)
  100138:	00d5a023          	sw	x13,0(x11)
  10013c:	00458593          	addi	x11,x11,4
  100140:	00460613          	addi	x12,x12,4
  100144:	fea5e8e3          	bltu	x11,x10,100134 <_start_rust+0x58>
  100148:	00001097          	auipc	x1,0x1
  10014c:	138080e7          	jalr	x1,312(x1) # 101280 <_setup_interrupts>
  100150:	00000097          	auipc	x1,0x0
  100154:	34c080e7          	jalr	x1,844(x1) # 10049c <main>
  100158:	c0001073          	unimp

0010015c <_start_trap>:
  10015c:	fc010113          	addi	x2,x2,-64
  100160:	00112023          	sw	x1,0(x2)
  100164:	00512223          	sw	x5,4(x2)
  100168:	00612423          	sw	x6,8(x2)
  10016c:	00712623          	sw	x7,12(x2)
  100170:	01c12823          	sw	x28,16(x2)
  100174:	01d12a23          	sw	x29,20(x2)
  100178:	01e12c23          	sw	x30,24(x2)
  10017c:	01f12e23          	sw	x31,28(x2)
  100180:	02a12023          	sw	x10,32(x2)
  100184:	02b12223          	sw	x11,36(x2)
  100188:	02c12423          	sw	x12,40(x2)
  10018c:	02d12623          	sw	x13,44(x2)
  100190:	02e12823          	sw	x14,48(x2)
  100194:	02f12a23          	sw	x15,52(x2)
  100198:	03012c23          	sw	x16,56(x2)
  10019c:	03112e23          	sw	x17,60(x2)
  1001a0:	00010533          	add	x10,x2,x0
  1001a4:	04c000ef          	jal	x1,1001f0 <_start_trap_rust>
  1001a8:	00012083          	lw	x1,0(x2)
  1001ac:	00412283          	lw	x5,4(x2)
  1001b0:	00812303          	lw	x6,8(x2)
  1001b4:	00c12383          	lw	x7,12(x2)
  1001b8:	01012e03          	lw	x28,16(x2)
  1001bc:	01412e83          	lw	x29,20(x2)
  1001c0:	01812f03          	lw	x30,24(x2)
  1001c4:	01c12f83          	lw	x31,28(x2)
  1001c8:	02012503          	lw	x10,32(x2)
  1001cc:	02412583          	lw	x11,36(x2)
  1001d0:	02812603          	lw	x12,40(x2)
  1001d4:	02c12683          	lw	x13,44(x2)
  1001d8:	03012703          	lw	x14,48(x2)
  1001dc:	03412783          	lw	x15,52(x2)
  1001e0:	03812803          	lw	x16,56(x2)
  1001e4:	03c12883          	lw	x17,60(x2)
  1001e8:	04010113          	addi	x2,x2,64
  1001ec:	30200073          	mret

001001f0 <_start_trap_rust>:
  1001f0:	fd010113          	addi	x2,x2,-48
  1001f4:	02112623          	sw	x1,44(x2)
  1001f8:	02812423          	sw	x8,40(x2)
  1001fc:	00050413          	addi	x8,x10,0
  100200:	00001097          	auipc	x1,0x1
  100204:	f00080e7          	jalr	x1,-256(x1) # 101100 <__read_mcause>
  100208:	fff00593          	addi	x11,x0,-1
  10020c:	00a5de63          	bge	x11,x10,100228 <_start_trap_rust+0x38>
  100210:	00040513          	addi	x10,x8,0
  100214:	02812403          	lw	x8,40(x2)
  100218:	02c12083          	lw	x1,44(x2)
  10021c:	03010113          	addi	x2,x2,48
  100220:	00001317          	auipc	x6,0x1
  100224:	e9430067          	jalr	x0,-364(x6) # 1010b4 <DefaultExceptionHandler>
  100228:	800005b7          	lui	x11,0x80000
  10022c:	fff58593          	addi	x11,x11,-1 # 7fffffff <_sstack+0x7ddfffff>
  100230:	00b57533          	and	x10,x10,x11
  100234:	00c00593          	addi	x11,x0,12
  100238:	02b57663          	bgeu	x10,x11,100264 <_start_trap_rust+0x74>
  10023c:	001015b7          	lui	x11,0x101
  100240:	3d858593          	addi	x11,x11,984 # 1013d8 <__INTERRUPTS>
  100244:	00251513          	slli	x10,x10,0x2
  100248:	00b50533          	add	x10,x10,x11
  10024c:	00052783          	lw	x15,0(x10)
  100250:	00078a63          	beq	x15,x0,100264 <_start_trap_rust+0x74>
  100254:	02812403          	lw	x8,40(x2)
  100258:	02c12083          	lw	x1,44(x2)
  10025c:	03010113          	addi	x2,x2,48
  100260:	00078067          	jalr	x0,0(x15)
  100264:	02010513          	addi	x10,x2,32
  100268:	00a12223          	sw	x10,4(x2)
  10026c:	00101537          	lui	x10,0x101
  100270:	2c050513          	addi	x10,x10,704 # 1012c0 <.L__unnamed_1>
  100274:	00a12423          	sw	x10,8(x2)
  100278:	00100513          	addi	x10,x0,1
  10027c:	00a12623          	sw	x10,12(x2)
  100280:	00012823          	sw	x0,16(x2)
  100284:	00101537          	lui	x10,0x101
  100288:	3d850513          	addi	x10,x10,984 # 1013d8 <__INTERRUPTS>
  10028c:	00a12c23          	sw	x10,24(x2)
  100290:	00012e23          	sw	x0,28(x2)
  100294:	00410513          	addi	x10,x2,4
  100298:	00810593          	addi	x11,x2,8
  10029c:	00001097          	auipc	x1,0x1
  1002a0:	8a0080e7          	jalr	x1,-1888(x1) # 100b3c <_ZN4core3fmt5write17hc4cfb234790a7690E>
  1002a4:	02812403          	lw	x8,40(x2)
  1002a8:	02c12083          	lw	x1,44(x2)
  1002ac:	03010113          	addi	x2,x2,48
  1002b0:	00008067          	jalr	x0,0(x1)

001002b4 <_ZN4core3ptr13drop_in_place17hae342a40da41e9bcE>:
  1002b4:	00008067          	jalr	x0,0(x1)

001002b8 <_ZN50_$LT$$RF$mut$u20$W$u20$as$u20$core..fmt..Write$GT$10write_char17ha17104cba9dac7a4E>:
  1002b8:	ff010113          	addi	x2,x2,-16
  1002bc:	08000513          	addi	x10,x0,128
  1002c0:	00012623          	sw	x0,12(x2)
  1002c4:	00a5f863          	bgeu	x11,x10,1002d4 <_ZN50_$LT$$RF$mut$u20$W$u20$as$u20$core..fmt..Write$GT$10write_char17ha17104cba9dac7a4E+0x1c>
  1002c8:	00b10623          	sb	x11,12(x2)
  1002cc:	00100513          	addi	x10,x0,1
  1002d0:	0a00006f          	jal	x0,100370 <_ZN50_$LT$$RF$mut$u20$W$u20$as$u20$core..fmt..Write$GT$10write_char17ha17104cba9dac7a4E+0xb8>
  1002d4:	00b5d513          	srli	x10,x11,0xb
  1002d8:	02051263          	bne	x10,x0,1002fc <_ZN50_$LT$$RF$mut$u20$W$u20$as$u20$core..fmt..Write$GT$10write_char17ha17104cba9dac7a4E+0x44>
  1002dc:	0065d513          	srli	x10,x11,0x6
  1002e0:	0c056513          	ori	x10,x10,192
  1002e4:	00a10623          	sb	x10,12(x2)
  1002e8:	03f5f513          	andi	x10,x11,63
  1002ec:	08056513          	ori	x10,x10,128
  1002f0:	00a106a3          	sb	x10,13(x2)
  1002f4:	00200513          	addi	x10,x0,2
  1002f8:	0780006f          	jal	x0,100370 <_ZN50_$LT$$RF$mut$u20$W$u20$as$u20$core..fmt..Write$GT$10write_char17ha17104cba9dac7a4E+0xb8>
  1002fc:	0105d513          	srli	x10,x11,0x10
  100300:	02051a63          	bne	x10,x0,100334 <_ZN50_$LT$$RF$mut$u20$W$u20$as$u20$core..fmt..Write$GT$10write_char17ha17104cba9dac7a4E+0x7c>
  100304:	00c5d513          	srli	x10,x11,0xc
  100308:	0e056513          	ori	x10,x10,224
  10030c:	00a10623          	sb	x10,12(x2)
  100310:	0065d513          	srli	x10,x11,0x6
  100314:	03f57513          	andi	x10,x10,63
  100318:	08056513          	ori	x10,x10,128
  10031c:	00a106a3          	sb	x10,13(x2)
  100320:	03f5f513          	andi	x10,x11,63
  100324:	08056513          	ori	x10,x10,128
  100328:	00a10723          	sb	x10,14(x2)
  10032c:	00300513          	addi	x10,x0,3
  100330:	0400006f          	jal	x0,100370 <_ZN50_$LT$$RF$mut$u20$W$u20$as$u20$core..fmt..Write$GT$10write_char17ha17104cba9dac7a4E+0xb8>
  100334:	0125d513          	srli	x10,x11,0x12
  100338:	0f056513          	ori	x10,x10,240
  10033c:	00a10623          	sb	x10,12(x2)
  100340:	00c5d513          	srli	x10,x11,0xc
  100344:	03f57513          	andi	x10,x10,63
  100348:	08056513          	ori	x10,x10,128
  10034c:	00a106a3          	sb	x10,13(x2)
  100350:	0065d513          	srli	x10,x11,0x6
  100354:	03f57513          	andi	x10,x10,63
  100358:	08056513          	ori	x10,x10,128
  10035c:	00a10723          	sb	x10,14(x2)
  100360:	03f5f513          	andi	x10,x11,63
  100364:	08056513          	ori	x10,x10,128
  100368:	00a107a3          	sb	x10,15(x2)
  10036c:	00400513          	addi	x10,x0,4
  100370:	000015b7          	lui	x11,0x1
  100374:	0005a683          	lw	x13,0(x11) # 1000 <.Lline_table_start0+0x7b1>
  100378:	00c10713          	addi	x14,x2,12
  10037c:	fff00613          	addi	x12,x0,-1
  100380:	02d65663          	bge	x12,x13,1003ac <_ZN50_$LT$$RF$mut$u20$W$u20$as$u20$core..fmt..Write$GT$10write_char17ha17104cba9dac7a4E+0xf4>
  100384:	00074783          	lbu	x15,0(x14)
  100388:	00170713          	addi	x14,x14,1
  10038c:	f006f693          	andi	x13,x13,-256
  100390:	00f6e6b3          	or	x13,x13,x15
  100394:	fff50513          	addi	x10,x10,-1
  100398:	00d5a023          	sw	x13,0(x11)
  10039c:	fe0512e3          	bne	x10,x0,100380 <_ZN50_$LT$$RF$mut$u20$W$u20$as$u20$core..fmt..Write$GT$10write_char17ha17104cba9dac7a4E+0xc8>
  1003a0:	00000513          	addi	x10,x0,0
  1003a4:	01010113          	addi	x2,x2,16
  1003a8:	00008067          	jalr	x0,0(x1)
  1003ac:	0000006f          	jal	x0,1003ac <_ZN50_$LT$$RF$mut$u20$W$u20$as$u20$core..fmt..Write$GT$10write_char17ha17104cba9dac7a4E+0xf4>

001003b0 <_ZN50_$LT$$RF$mut$u20$W$u20$as$u20$core..fmt..Write$GT$9write_fmt17h981e83e988a9fe58E>:
  1003b0:	fd010113          	addi	x2,x2,-48
  1003b4:	02112623          	sw	x1,44(x2)
  1003b8:	00052503          	lw	x10,0(x10)
  1003bc:	0145a603          	lw	x12,20(x11)
  1003c0:	0105a683          	lw	x13,16(x11)
  1003c4:	00a12623          	sw	x10,12(x2)
  1003c8:	02c12223          	sw	x12,36(x2)
  1003cc:	02d12023          	sw	x13,32(x2)
  1003d0:	00c5a503          	lw	x10,12(x11)
  1003d4:	0085a603          	lw	x12,8(x11)
  1003d8:	0045a683          	lw	x13,4(x11)
  1003dc:	0005a583          	lw	x11,0(x11)
  1003e0:	00a12e23          	sw	x10,28(x2)
  1003e4:	00c12c23          	sw	x12,24(x2)
  1003e8:	00d12a23          	sw	x13,20(x2)
  1003ec:	00b12823          	sw	x11,16(x2)
  1003f0:	00c10513          	addi	x10,x2,12
  1003f4:	01010593          	addi	x11,x2,16
  1003f8:	00000097          	auipc	x1,0x0
  1003fc:	744080e7          	jalr	x1,1860(x1) # 100b3c <_ZN4core3fmt5write17hc4cfb234790a7690E>
  100400:	02c12083          	lw	x1,44(x2)
  100404:	03010113          	addi	x2,x2,48
  100408:	00008067          	jalr	x0,0(x1)

0010040c <_ZN50_$LT$$RF$mut$u20$W$u20$as$u20$core..fmt..Write$GT$9write_str17h0182fc9dc5ff85ffE>:
  10040c:	02060863          	beq	x12,x0,10043c <_ZN50_$LT$$RF$mut$u20$W$u20$as$u20$core..fmt..Write$GT$9write_str17h0182fc9dc5ff85ffE+0x30>
  100410:	00001537          	lui	x10,0x1
  100414:	00052703          	lw	x14,0(x10) # 1000 <.Lline_table_start0+0x7b1>
  100418:	fff00693          	addi	x13,x0,-1
  10041c:	02e6d463          	bge	x13,x14,100444 <_ZN50_$LT$$RF$mut$u20$W$u20$as$u20$core..fmt..Write$GT$9write_str17h0182fc9dc5ff85ffE+0x38>
  100420:	0005c783          	lbu	x15,0(x11)
  100424:	00158593          	addi	x11,x11,1
  100428:	f0077713          	andi	x14,x14,-256
  10042c:	00f76733          	or	x14,x14,x15
  100430:	fff60613          	addi	x12,x12,-1
  100434:	00e52023          	sw	x14,0(x10)
  100438:	fe0612e3          	bne	x12,x0,10041c <_ZN50_$LT$$RF$mut$u20$W$u20$as$u20$core..fmt..Write$GT$9write_str17h0182fc9dc5ff85ffE+0x10>
  10043c:	00000513          	addi	x10,x0,0
  100440:	00008067          	jalr	x0,0(x1)
  100444:	0000006f          	jal	x0,100444 <_ZN50_$LT$$RF$mut$u20$W$u20$as$u20$core..fmt..Write$GT$9write_str17h0182fc9dc5ff85ffE+0x38>

00100448 <DefaultHandler>:
  100448:	fd010113          	addi	x2,x2,-48
  10044c:	02112623          	sw	x1,44(x2)
  100450:	02810513          	addi	x10,x2,40
  100454:	00a12623          	sw	x10,12(x2)
  100458:	00101537          	lui	x10,0x101
  10045c:	2c050513          	addi	x10,x10,704 # 1012c0 <.L__unnamed_1>
  100460:	00a12823          	sw	x10,16(x2)
  100464:	00100513          	addi	x10,x0,1
  100468:	00a12a23          	sw	x10,20(x2)
  10046c:	00012c23          	sw	x0,24(x2)
  100470:	00101537          	lui	x10,0x101
  100474:	3d850513          	addi	x10,x10,984 # 1013d8 <__INTERRUPTS>
  100478:	02a12023          	sw	x10,32(x2)
  10047c:	02012223          	sw	x0,36(x2)
  100480:	00c10513          	addi	x10,x2,12
  100484:	01010593          	addi	x11,x2,16
  100488:	00000097          	auipc	x1,0x0
  10048c:	6b4080e7          	jalr	x1,1716(x1) # 100b3c <_ZN4core3fmt5write17hc4cfb234790a7690E>
  100490:	02c12083          	lw	x1,44(x2)
  100494:	03010113          	addi	x2,x2,48
  100498:	00008067          	jalr	x0,0(x1)

0010049c <main>:
  10049c:	fa010113          	addi	x2,x2,-96
  1004a0:	04112e23          	sw	x1,92(x2)
  1004a4:	04812c23          	sw	x8,88(x2)
  1004a8:	04912a23          	sw	x9,84(x2)
  1004ac:	05212823          	sw	x18,80(x2)
  1004b0:	05312623          	sw	x19,76(x2)
  1004b4:	05412423          	sw	x20,72(x2)
  1004b8:	05512223          	sw	x21,68(x2)
  1004bc:	05612023          	sw	x22,64(x2)
  1004c0:	03712e23          	sw	x23,60(x2)
  1004c4:	03812c23          	sw	x24,56(x2)
  1004c8:	03010993          	addi	x19,x2,48
  1004cc:	01312423          	sw	x19,8(x2)
  1004d0:	00101537          	lui	x10,0x101
  1004d4:	2e850513          	addi	x10,x10,744 # 1012e8 <.L__unnamed_2>
  1004d8:	00a12c23          	sw	x10,24(x2)
  1004dc:	00100a13          	addi	x20,x0,1
  1004e0:	01412e23          	sw	x20,28(x2)
  1004e4:	02012023          	sw	x0,32(x2)
  1004e8:	00101537          	lui	x10,0x101
  1004ec:	3d850513          	addi	x10,x10,984 # 1013d8 <__INTERRUPTS>
  1004f0:	02a12423          	sw	x10,40(x2)
  1004f4:	02012623          	sw	x0,44(x2)
  1004f8:	00810913          	addi	x18,x2,8
  1004fc:	01810593          	addi	x11,x2,24
  100500:	00090513          	addi	x10,x18,0
  100504:	00000097          	auipc	x1,0x0
  100508:	638080e7          	jalr	x1,1592(x1) # 100b3c <_ZN4core3fmt5write17hc4cfb234790a7690E>
  10050c:	00900513          	addi	x10,x0,9
  100510:	00a12223          	sw	x10,4(x2)
  100514:	00410a93          	addi	x21,x2,4
  100518:	01512423          	sw	x21,8(x2)
  10051c:	00101537          	lui	x10,0x101
  100520:	e5050413          	addi	x8,x10,-432 # 100e50 <_ZN4core3fmt3num3imp52_$LT$impl$u20$core..fmt..Display$u20$for$u20$i32$GT$3fmt17h68e963e7dfee92fbE>
  100524:	00812623          	sw	x8,12(x2)
  100528:	01312a23          	sw	x19,20(x2)
  10052c:	00101537          	lui	x10,0x101
  100530:	30050493          	addi	x9,x10,768 # 101300 <.L__unnamed_3>
  100534:	00912c23          	sw	x9,24(x2)
  100538:	00200c13          	addi	x24,x0,2
  10053c:	01812e23          	sw	x24,28(x2)
  100540:	02012023          	sw	x0,32(x2)
  100544:	03212423          	sw	x18,40(x2)
  100548:	03412623          	sw	x20,44(x2)
  10054c:	01410b93          	addi	x23,x2,20
  100550:	01810b13          	addi	x22,x2,24
  100554:	000b8513          	addi	x10,x23,0
  100558:	000b0593          	addi	x11,x22,0
  10055c:	00000097          	auipc	x1,0x0
  100560:	5e0080e7          	jalr	x1,1504(x1) # 100b3c <_ZN4core3fmt5write17hc4cfb234790a7690E>
  100564:	00800513          	addi	x10,x0,8
  100568:	00a12223          	sw	x10,4(x2)
  10056c:	01512423          	sw	x21,8(x2)
  100570:	00812623          	sw	x8,12(x2)
  100574:	01312a23          	sw	x19,20(x2)
  100578:	00912c23          	sw	x9,24(x2)
  10057c:	01812e23          	sw	x24,28(x2)
  100580:	02012023          	sw	x0,32(x2)
  100584:	03212423          	sw	x18,40(x2)
  100588:	03412623          	sw	x20,44(x2)
  10058c:	000b8513          	addi	x10,x23,0
  100590:	000b0593          	addi	x11,x22,0
  100594:	00000097          	auipc	x1,0x0
  100598:	5a8080e7          	jalr	x1,1448(x1) # 100b3c <_ZN4core3fmt5write17hc4cfb234790a7690E>
  10059c:	00700513          	addi	x10,x0,7
  1005a0:	00a12223          	sw	x10,4(x2)
  1005a4:	01512423          	sw	x21,8(x2)
  1005a8:	00812623          	sw	x8,12(x2)
  1005ac:	01312a23          	sw	x19,20(x2)
  1005b0:	00912c23          	sw	x9,24(x2)
  1005b4:	01812e23          	sw	x24,28(x2)
  1005b8:	02012023          	sw	x0,32(x2)
  1005bc:	03212423          	sw	x18,40(x2)
  1005c0:	03412623          	sw	x20,44(x2)
  1005c4:	000b8513          	addi	x10,x23,0
  1005c8:	000b0593          	addi	x11,x22,0
  1005cc:	00000097          	auipc	x1,0x0
  1005d0:	570080e7          	jalr	x1,1392(x1) # 100b3c <_ZN4core3fmt5write17hc4cfb234790a7690E>
  1005d4:	00600513          	addi	x10,x0,6
  1005d8:	00a12223          	sw	x10,4(x2)
  1005dc:	01512423          	sw	x21,8(x2)
  1005e0:	00812623          	sw	x8,12(x2)
  1005e4:	01312a23          	sw	x19,20(x2)
  1005e8:	00912c23          	sw	x9,24(x2)
  1005ec:	01812e23          	sw	x24,28(x2)
  1005f0:	02012023          	sw	x0,32(x2)
  1005f4:	03212423          	sw	x18,40(x2)
  1005f8:	03412623          	sw	x20,44(x2)
  1005fc:	000b8513          	addi	x10,x23,0
  100600:	000b0593          	addi	x11,x22,0
  100604:	00000097          	auipc	x1,0x0
  100608:	538080e7          	jalr	x1,1336(x1) # 100b3c <_ZN4core3fmt5write17hc4cfb234790a7690E>
  10060c:	00500513          	addi	x10,x0,5
  100610:	00a12223          	sw	x10,4(x2)
  100614:	01512423          	sw	x21,8(x2)
  100618:	00812623          	sw	x8,12(x2)
  10061c:	01312a23          	sw	x19,20(x2)
  100620:	00912c23          	sw	x9,24(x2)
  100624:	01812e23          	sw	x24,28(x2)
  100628:	02012023          	sw	x0,32(x2)
  10062c:	03212423          	sw	x18,40(x2)
  100630:	03412623          	sw	x20,44(x2)
  100634:	000b8513          	addi	x10,x23,0
  100638:	000b0593          	addi	x11,x22,0
  10063c:	00000097          	auipc	x1,0x0
  100640:	500080e7          	jalr	x1,1280(x1) # 100b3c <_ZN4core3fmt5write17hc4cfb234790a7690E>
  100644:	00400513          	addi	x10,x0,4
  100648:	00a12223          	sw	x10,4(x2)
  10064c:	01512423          	sw	x21,8(x2)
  100650:	00812623          	sw	x8,12(x2)
  100654:	01312a23          	sw	x19,20(x2)
  100658:	00912c23          	sw	x9,24(x2)
  10065c:	01812e23          	sw	x24,28(x2)
  100660:	02012023          	sw	x0,32(x2)
  100664:	03212423          	sw	x18,40(x2)
  100668:	03412623          	sw	x20,44(x2)
  10066c:	000b8513          	addi	x10,x23,0
  100670:	000b0593          	addi	x11,x22,0
  100674:	00000097          	auipc	x1,0x0
  100678:	4c8080e7          	jalr	x1,1224(x1) # 100b3c <_ZN4core3fmt5write17hc4cfb234790a7690E>
  10067c:	00300513          	addi	x10,x0,3
  100680:	00a12223          	sw	x10,4(x2)
  100684:	01512423          	sw	x21,8(x2)
  100688:	00812623          	sw	x8,12(x2)
  10068c:	01312a23          	sw	x19,20(x2)
  100690:	00912c23          	sw	x9,24(x2)
  100694:	01812e23          	sw	x24,28(x2)
  100698:	02012023          	sw	x0,32(x2)
  10069c:	03212423          	sw	x18,40(x2)
  1006a0:	03412623          	sw	x20,44(x2)
  1006a4:	000b8513          	addi	x10,x23,0
  1006a8:	000b0593          	addi	x11,x22,0
  1006ac:	00000097          	auipc	x1,0x0
  1006b0:	490080e7          	jalr	x1,1168(x1) # 100b3c <_ZN4core3fmt5write17hc4cfb234790a7690E>
  1006b4:	01812223          	sw	x24,4(x2)
  1006b8:	01512423          	sw	x21,8(x2)
  1006bc:	00812623          	sw	x8,12(x2)
  1006c0:	01312a23          	sw	x19,20(x2)
  1006c4:	00912c23          	sw	x9,24(x2)
  1006c8:	01812e23          	sw	x24,28(x2)
  1006cc:	02012023          	sw	x0,32(x2)
  1006d0:	03212423          	sw	x18,40(x2)
  1006d4:	03412623          	sw	x20,44(x2)
  1006d8:	000b8513          	addi	x10,x23,0
  1006dc:	000b0593          	addi	x11,x22,0
  1006e0:	00000097          	auipc	x1,0x0
  1006e4:	45c080e7          	jalr	x1,1116(x1) # 100b3c <_ZN4core3fmt5write17hc4cfb234790a7690E>
  1006e8:	01412223          	sw	x20,4(x2)
  1006ec:	01512423          	sw	x21,8(x2)
  1006f0:	00812623          	sw	x8,12(x2)
  1006f4:	01312a23          	sw	x19,20(x2)
  1006f8:	00912c23          	sw	x9,24(x2)
  1006fc:	01812e23          	sw	x24,28(x2)
  100700:	02012023          	sw	x0,32(x2)
  100704:	03212423          	sw	x18,40(x2)
  100708:	03412623          	sw	x20,44(x2)
  10070c:	000b8513          	addi	x10,x23,0
  100710:	000b0593          	addi	x11,x22,0
  100714:	00000097          	auipc	x1,0x0
  100718:	428080e7          	jalr	x1,1064(x1) # 100b3c <_ZN4core3fmt5write17hc4cfb234790a7690E>
  10071c:	00012223          	sw	x0,4(x2)
  100720:	01512423          	sw	x21,8(x2)
  100724:	00812623          	sw	x8,12(x2)
  100728:	01312a23          	sw	x19,20(x2)
  10072c:	00912c23          	sw	x9,24(x2)
  100730:	01812e23          	sw	x24,28(x2)
  100734:	02012023          	sw	x0,32(x2)
  100738:	03212423          	sw	x18,40(x2)
  10073c:	03412623          	sw	x20,44(x2)
  100740:	000b8513          	addi	x10,x23,0
  100744:	000b0593          	addi	x11,x22,0
  100748:	00000097          	auipc	x1,0x0
  10074c:	3f4080e7          	jalr	x1,1012(x1) # 100b3c <_ZN4core3fmt5write17hc4cfb234790a7690E>
  100750:	00001097          	auipc	x1,0x1
  100754:	9a0080e7          	jalr	x1,-1632(x1) # 1010f0 <__wfi>
  100758:	ff9ff06f          	jal	x0,100750 <main+0x2b4>

0010075c <_ZN4core3ops8function6FnOnce9call_once17hf95a512840697715E>:
  10075c:	00052503          	lw	x10,0(x10)
  100760:	0000006f          	jal	x0,100760 <_ZN4core3ops8function6FnOnce9call_once17hf95a512840697715E+0x4>

00100764 <_ZN4core9panicking18panic_bounds_check17h1271d016dbbb83a7E>:
  100764:	ff010113          	addi	x2,x2,-16
  100768:	00112623          	sw	x1,12(x2)
  10076c:	00000097          	auipc	x1,0x0
  100770:	00c080e7          	jalr	x1,12(x1) # 100778 <_ZN4core9panicking9panic_fmt17h9b4c539136e2bca5E>
  100774:	c0001073          	unimp

00100778 <_ZN4core9panicking9panic_fmt17h9b4c539136e2bca5E>:
  100778:	ff010113          	addi	x2,x2,-16
  10077c:	00112623          	sw	x1,12(x2)
  100780:	00001097          	auipc	x1,0x1
  100784:	92c080e7          	jalr	x1,-1748(x1) # 1010ac <rust_begin_unwind>
  100788:	c0001073          	unimp

0010078c <_ZN4core3fmt9Formatter12pad_integral17he2541bb2ad863cd8E>:
  10078c:	fd010113          	addi	x2,x2,-48
  100790:	02112623          	sw	x1,44(x2)
  100794:	02812423          	sw	x8,40(x2)
  100798:	02912223          	sw	x9,36(x2)
  10079c:	03212023          	sw	x18,32(x2)
  1007a0:	01312e23          	sw	x19,28(x2)
  1007a4:	01412c23          	sw	x20,24(x2)
  1007a8:	01512a23          	sw	x21,20(x2)
  1007ac:	01612823          	sw	x22,16(x2)
  1007b0:	01712623          	sw	x23,12(x2)
  1007b4:	01812423          	sw	x24,8(x2)
  1007b8:	01912223          	sw	x25,4(x2)
  1007bc:	01a12023          	sw	x26,0(x2)
  1007c0:	00068993          	addi	x19,x13,0
  1007c4:	00060913          	addi	x18,x12,0
  1007c8:	00050413          	addi	x8,x10,0
  1007cc:	02058063          	beq	x11,x0,1007ec <_ZN4core3fmt9Formatter12pad_integral17he2541bb2ad863cd8E+0x60>
  1007d0:	00042503          	lw	x10,0(x8)
  1007d4:	00157593          	andi	x11,x10,1
  1007d8:	00110a37          	lui	x20,0x110
  1007dc:	00058463          	beq	x11,x0,1007e4 <_ZN4core3fmt9Formatter12pad_integral17he2541bb2ad863cd8E+0x58>
  1007e0:	02b00a13          	addi	x20,x0,43
  1007e4:	01358c33          	add	x24,x11,x19
  1007e8:	0100006f          	jal	x0,1007f8 <_ZN4core3fmt9Formatter12pad_integral17he2541bb2ad863cd8E+0x6c>
  1007ec:	00042503          	lw	x10,0(x8)
  1007f0:	00198c13          	addi	x24,x19,1
  1007f4:	02d00a13          	addi	x20,x0,45
  1007f8:	01d51593          	slli	x11,x10,0x1d
  1007fc:	41f5d593          	srai	x11,x11,0x1f
  100800:	00842603          	lw	x12,8(x8)
  100804:	001016b7          	lui	x13,0x101
  100808:	3d868693          	addi	x13,x13,984 # 1013d8 <__INTERRUPTS>
  10080c:	00100d13          	addi	x26,x0,1
  100810:	00d5fab3          	and	x21,x11,x13
  100814:	05a61463          	bne	x12,x26,10085c <_ZN4core3fmt9Formatter12pad_integral17he2541bb2ad863cd8E+0xd0>
  100818:	00c42c83          	lw	x25,12(x8)
  10081c:	059c7063          	bgeu	x24,x25,10085c <_ZN4core3fmt9Formatter12pad_integral17he2541bb2ad863cd8E+0xd0>
  100820:	00857513          	andi	x10,x10,8
  100824:	0c051c63          	bne	x10,x0,1008fc <_ZN4core3fmt9Formatter12pad_integral17he2541bb2ad863cd8E+0x170>
  100828:	02044503          	lbu	x10,32(x8)
  10082c:	00100593          	addi	x11,x0,1
  100830:	00300693          	addi	x13,x0,3
  100834:	00100613          	addi	x12,x0,1
  100838:	00d50463          	beq	x10,x13,100840 <_ZN4core3fmt9Formatter12pad_integral17he2541bb2ad863cd8E+0xb4>
  10083c:	00050613          	addi	x12,x10,0
  100840:	00367613          	andi	x12,x12,3
  100844:	418c8533          	sub	x10,x25,x24
  100848:	10c5cc63          	blt	x11,x12,100960 <_ZN4core3fmt9Formatter12pad_integral17he2541bb2ad863cd8E+0x1d4>
  10084c:	10061e63          	bne	x12,x0,100968 <_ZN4core3fmt9Formatter12pad_integral17he2541bb2ad863cd8E+0x1dc>
  100850:	00050b93          	addi	x23,x10,0
  100854:	00000513          	addi	x10,x0,0
  100858:	1340006f          	jal	x0,10098c <_ZN4core3fmt9Formatter12pad_integral17he2541bb2ad863cd8E+0x200>
  10085c:	00040513          	addi	x10,x8,0
  100860:	000a0593          	addi	x11,x20,0 # 110000 <_sidata+0xebf8>
  100864:	000a8613          	addi	x12,x21,0
  100868:	00000097          	auipc	x1,0x0
  10086c:	254080e7          	jalr	x1,596(x1) # 100abc <_ZN4core3fmt9Formatter12pad_integral12write_prefix17hf0f18c8717655380E>
  100870:	04050063          	beq	x10,x0,1008b0 <_ZN4core3fmt9Formatter12pad_integral17he2541bb2ad863cd8E+0x124>
  100874:	000d0513          	addi	x10,x26,0
  100878:	00012d03          	lw	x26,0(x2)
  10087c:	00412c83          	lw	x25,4(x2)
  100880:	00812c03          	lw	x24,8(x2)
  100884:	00c12b83          	lw	x23,12(x2)
  100888:	01012b03          	lw	x22,16(x2)
  10088c:	01412a83          	lw	x21,20(x2)
  100890:	01812a03          	lw	x20,24(x2)
  100894:	01c12983          	lw	x19,28(x2)
  100898:	02012903          	lw	x18,32(x2)
  10089c:	02412483          	lw	x9,36(x2)
  1008a0:	02812403          	lw	x8,40(x2)
  1008a4:	02c12083          	lw	x1,44(x2)
  1008a8:	03010113          	addi	x2,x2,48
  1008ac:	00008067          	jalr	x0,0(x1)
  1008b0:	01c42583          	lw	x11,28(x8)
  1008b4:	01842503          	lw	x10,24(x8)
  1008b8:	00c5a783          	lw	x15,12(x11)
  1008bc:	00090593          	addi	x11,x18,0
  1008c0:	00098613          	addi	x12,x19,0
  1008c4:	00012d03          	lw	x26,0(x2)
  1008c8:	00412c83          	lw	x25,4(x2)
  1008cc:	00812c03          	lw	x24,8(x2)
  1008d0:	00c12b83          	lw	x23,12(x2)
  1008d4:	01012b03          	lw	x22,16(x2)
  1008d8:	01412a83          	lw	x21,20(x2)
  1008dc:	01812a03          	lw	x20,24(x2)
  1008e0:	01c12983          	lw	x19,28(x2)
  1008e4:	02012903          	lw	x18,32(x2)
  1008e8:	02412483          	lw	x9,36(x2)
  1008ec:	02812403          	lw	x8,40(x2)
  1008f0:	02c12083          	lw	x1,44(x2)
  1008f4:	03010113          	addi	x2,x2,48
  1008f8:	00078067          	jalr	x0,0(x15)
  1008fc:	00442b03          	lw	x22,4(x8)
  100900:	03000513          	addi	x10,x0,48
  100904:	02044b83          	lbu	x23,32(x8)
  100908:	00a42223          	sw	x10,4(x8)
  10090c:	00100d13          	addi	x26,x0,1
  100910:	03a40023          	sb	x26,32(x8)
  100914:	00040513          	addi	x10,x8,0
  100918:	000a0593          	addi	x11,x20,0
  10091c:	000a8613          	addi	x12,x21,0
  100920:	00000097          	auipc	x1,0x0
  100924:	19c080e7          	jalr	x1,412(x1) # 100abc <_ZN4core3fmt9Formatter12pad_integral12write_prefix17hf0f18c8717655380E>
  100928:	f40516e3          	bne	x10,x0,100874 <_ZN4core3fmt9Formatter12pad_integral17he2541bb2ad863cd8E+0xe8>
  10092c:	02044503          	lbu	x10,32(x8)
  100930:	00100593          	addi	x11,x0,1
  100934:	00300693          	addi	x13,x0,3
  100938:	00100613          	addi	x12,x0,1
  10093c:	00d50463          	beq	x10,x13,100944 <_ZN4core3fmt9Formatter12pad_integral17he2541bb2ad863cd8E+0x1b8>
  100940:	00050613          	addi	x12,x10,0
  100944:	00367613          	andi	x12,x12,3
  100948:	418c8533          	sub	x10,x25,x24
  10094c:	02c5c263          	blt	x11,x12,100970 <_ZN4core3fmt9Formatter12pad_integral17he2541bb2ad863cd8E+0x1e4>
  100950:	02061463          	bne	x12,x0,100978 <_ZN4core3fmt9Formatter12pad_integral17he2541bb2ad863cd8E+0x1ec>
  100954:	00050a93          	addi	x21,x10,0
  100958:	00000513          	addi	x10,x0,0
  10095c:	0cc0006f          	jal	x0,100a28 <_ZN4core3fmt9Formatter12pad_integral17he2541bb2ad863cd8E+0x29c>
  100960:	00300593          	addi	x11,x0,3
  100964:	00b61e63          	bne	x12,x11,100980 <_ZN4core3fmt9Formatter12pad_integral17he2541bb2ad863cd8E+0x1f4>
  100968:	00000b93          	addi	x23,x0,0
  10096c:	0200006f          	jal	x0,10098c <_ZN4core3fmt9Formatter12pad_integral17he2541bb2ad863cd8E+0x200>
  100970:	00300593          	addi	x11,x0,3
  100974:	0ab61463          	bne	x12,x11,100a1c <_ZN4core3fmt9Formatter12pad_integral17he2541bb2ad863cd8E+0x290>
  100978:	00000a93          	addi	x21,x0,0
  10097c:	0ac0006f          	jal	x0,100a28 <_ZN4core3fmt9Formatter12pad_integral17he2541bb2ad863cd8E+0x29c>
  100980:	00150593          	addi	x11,x10,1
  100984:	00155513          	srli	x10,x10,0x1
  100988:	0015db93          	srli	x23,x11,0x1
  10098c:	00150493          	addi	x9,x10,1
  100990:	fff48493          	addi	x9,x9,-1
  100994:	02048063          	beq	x9,x0,1009b4 <_ZN4core3fmt9Formatter12pad_integral17he2541bb2ad863cd8E+0x228>
  100998:	01c42603          	lw	x12,28(x8)
  10099c:	01842503          	lw	x10,24(x8)
  1009a0:	00442583          	lw	x11,4(x8)
  1009a4:	01062603          	lw	x12,16(x12)
  1009a8:	000600e7          	jalr	x1,0(x12)
  1009ac:	fe0502e3          	beq	x10,x0,100990 <_ZN4core3fmt9Formatter12pad_integral17he2541bb2ad863cd8E+0x204>
  1009b0:	09c0006f          	jal	x0,100a4c <_ZN4core3fmt9Formatter12pad_integral17he2541bb2ad863cd8E+0x2c0>
  1009b4:	00442b03          	lw	x22,4(x8)
  1009b8:	00040513          	addi	x10,x8,0
  1009bc:	000a0593          	addi	x11,x20,0
  1009c0:	000a8613          	addi	x12,x21,0
  1009c4:	00000097          	auipc	x1,0x0
  1009c8:	0f8080e7          	jalr	x1,248(x1) # 100abc <_ZN4core3fmt9Formatter12pad_integral12write_prefix17hf0f18c8717655380E>
  1009cc:	00100d13          	addi	x26,x0,1
  1009d0:	ea0512e3          	bne	x10,x0,100874 <_ZN4core3fmt9Formatter12pad_integral17he2541bb2ad863cd8E+0xe8>
  1009d4:	01c42583          	lw	x11,28(x8)
  1009d8:	01842503          	lw	x10,24(x8)
  1009dc:	00c5a683          	lw	x13,12(x11)
  1009e0:	00090593          	addi	x11,x18,0
  1009e4:	00098613          	addi	x12,x19,0
  1009e8:	000680e7          	jalr	x1,0(x13)
  1009ec:	e80514e3          	bne	x10,x0,100874 <_ZN4core3fmt9Formatter12pad_integral17he2541bb2ad863cd8E+0xe8>
  1009f0:	01842903          	lw	x18,24(x8)
  1009f4:	01c42403          	lw	x8,28(x8)
  1009f8:	001b8493          	addi	x9,x23,1
  1009fc:	fff48493          	addi	x9,x9,-1
  100a00:	0a048263          	beq	x9,x0,100aa4 <_ZN4core3fmt9Formatter12pad_integral17he2541bb2ad863cd8E+0x318>
  100a04:	01042603          	lw	x12,16(x8)
  100a08:	00090513          	addi	x10,x18,0
  100a0c:	000b0593          	addi	x11,x22,0
  100a10:	000600e7          	jalr	x1,0(x12)
  100a14:	fe0504e3          	beq	x10,x0,1009fc <_ZN4core3fmt9Formatter12pad_integral17he2541bb2ad863cd8E+0x270>
  100a18:	e5dff06f          	jal	x0,100874 <_ZN4core3fmt9Formatter12pad_integral17he2541bb2ad863cd8E+0xe8>
  100a1c:	00150593          	addi	x11,x10,1
  100a20:	00155513          	srli	x10,x10,0x1
  100a24:	0015da93          	srli	x21,x11,0x1
  100a28:	00150493          	addi	x9,x10,1
  100a2c:	fff48493          	addi	x9,x9,-1
  100a30:	02048263          	beq	x9,x0,100a54 <_ZN4core3fmt9Formatter12pad_integral17he2541bb2ad863cd8E+0x2c8>
  100a34:	01c42603          	lw	x12,28(x8)
  100a38:	01842503          	lw	x10,24(x8)
  100a3c:	00442583          	lw	x11,4(x8)
  100a40:	01062603          	lw	x12,16(x12)
  100a44:	000600e7          	jalr	x1,0(x12)
  100a48:	fe0502e3          	beq	x10,x0,100a2c <_ZN4core3fmt9Formatter12pad_integral17he2541bb2ad863cd8E+0x2a0>
  100a4c:	00100d13          	addi	x26,x0,1
  100a50:	e25ff06f          	jal	x0,100874 <_ZN4core3fmt9Formatter12pad_integral17he2541bb2ad863cd8E+0xe8>
  100a54:	01c42583          	lw	x11,28(x8)
  100a58:	00442a03          	lw	x20,4(x8)
  100a5c:	01842503          	lw	x10,24(x8)
  100a60:	00c5a683          	lw	x13,12(x11)
  100a64:	00090593          	addi	x11,x18,0
  100a68:	00098613          	addi	x12,x19,0
  100a6c:	000680e7          	jalr	x1,0(x13)
  100a70:	00100d13          	addi	x26,x0,1
  100a74:	e00510e3          	bne	x10,x0,100874 <_ZN4core3fmt9Formatter12pad_integral17he2541bb2ad863cd8E+0xe8>
  100a78:	01842903          	lw	x18,24(x8)
  100a7c:	01c42983          	lw	x19,28(x8)
  100a80:	001a8493          	addi	x9,x21,1
  100a84:	fff48493          	addi	x9,x9,-1
  100a88:	02048263          	beq	x9,x0,100aac <_ZN4core3fmt9Formatter12pad_integral17he2541bb2ad863cd8E+0x320>
  100a8c:	0109a603          	lw	x12,16(x19)
  100a90:	00090513          	addi	x10,x18,0
  100a94:	000a0593          	addi	x11,x20,0
  100a98:	000600e7          	jalr	x1,0(x12)
  100a9c:	fe0504e3          	beq	x10,x0,100a84 <_ZN4core3fmt9Formatter12pad_integral17he2541bb2ad863cd8E+0x2f8>
  100aa0:	dd5ff06f          	jal	x0,100874 <_ZN4core3fmt9Formatter12pad_integral17he2541bb2ad863cd8E+0xe8>
  100aa4:	00000d13          	addi	x26,x0,0
  100aa8:	dcdff06f          	jal	x0,100874 <_ZN4core3fmt9Formatter12pad_integral17he2541bb2ad863cd8E+0xe8>
  100aac:	00000d13          	addi	x26,x0,0
  100ab0:	01642223          	sw	x22,4(x8)
  100ab4:	03740023          	sb	x23,32(x8)
  100ab8:	dbdff06f          	jal	x0,100874 <_ZN4core3fmt9Formatter12pad_integral17he2541bb2ad863cd8E+0xe8>

00100abc <_ZN4core3fmt9Formatter12pad_integral12write_prefix17hf0f18c8717655380E>:
  100abc:	ff010113          	addi	x2,x2,-16
  100ac0:	00112623          	sw	x1,12(x2)
  100ac4:	00812423          	sw	x8,8(x2)
  100ac8:	00912223          	sw	x9,4(x2)
  100acc:	001106b7          	lui	x13,0x110
  100ad0:	00060413          	addi	x8,x12,0
  100ad4:	00050493          	addi	x9,x10,0
  100ad8:	02d58063          	beq	x11,x13,100af8 <_ZN4core3fmt9Formatter12pad_integral12write_prefix17hf0f18c8717655380E+0x3c>
  100adc:	01c4a603          	lw	x12,28(x9)
  100ae0:	0184a503          	lw	x10,24(x9)
  100ae4:	01062603          	lw	x12,16(x12)
  100ae8:	000600e7          	jalr	x1,0(x12)
  100aec:	00050593          	addi	x11,x10,0
  100af0:	00100513          	addi	x10,x0,1
  100af4:	02059a63          	bne	x11,x0,100b28 <_ZN4core3fmt9Formatter12pad_integral12write_prefix17hf0f18c8717655380E+0x6c>
  100af8:	02040663          	beq	x8,x0,100b24 <_ZN4core3fmt9Formatter12pad_integral12write_prefix17hf0f18c8717655380E+0x68>
  100afc:	01c4a583          	lw	x11,28(x9)
  100b00:	0184a503          	lw	x10,24(x9)
  100b04:	00c5a783          	lw	x15,12(x11)
  100b08:	00040593          	addi	x11,x8,0
  100b0c:	00000613          	addi	x12,x0,0
  100b10:	00412483          	lw	x9,4(x2)
  100b14:	00812403          	lw	x8,8(x2)
  100b18:	00c12083          	lw	x1,12(x2)
  100b1c:	01010113          	addi	x2,x2,16
  100b20:	00078067          	jalr	x0,0(x15)
  100b24:	00000513          	addi	x10,x0,0
  100b28:	00412483          	lw	x9,4(x2)
  100b2c:	00812403          	lw	x8,8(x2)
  100b30:	00c12083          	lw	x1,12(x2)
  100b34:	01010113          	addi	x2,x2,16
  100b38:	00008067          	jalr	x0,0(x1)

00100b3c <_ZN4core3fmt5write17hc4cfb234790a7690E>:
  100b3c:	fa010113          	addi	x2,x2,-96
  100b40:	04112e23          	sw	x1,92(x2)
  100b44:	04812c23          	sw	x8,88(x2)
  100b48:	04912a23          	sw	x9,84(x2)
  100b4c:	05212823          	sw	x18,80(x2)
  100b50:	05312623          	sw	x19,76(x2)
  100b54:	05412423          	sw	x20,72(x2)
  100b58:	05512223          	sw	x21,68(x2)
  100b5c:	05612023          	sw	x22,64(x2)
  100b60:	03712e23          	sw	x23,60(x2)
  100b64:	03812c23          	sw	x24,56(x2)
  100b68:	03912a23          	sw	x25,52(x2)
  100b6c:	03a12823          	sw	x26,48(x2)
  100b70:	00012423          	sw	x0,8(x2)
  100b74:	02000613          	addi	x12,x0,32
  100b78:	00c12623          	sw	x12,12(x2)
  100b7c:	00300613          	addi	x12,x0,3
  100b80:	02c10423          	sb	x12,40(x2)
  100b84:	00012823          	sw	x0,16(x2)
  100b88:	00012c23          	sw	x0,24(x2)
  100b8c:	0085a603          	lw	x12,8(x11)
  100b90:	02a12023          	sw	x10,32(x2)
  100b94:	00101537          	lui	x10,0x101
  100b98:	29450513          	addi	x10,x10,660 # 101294 <.L__unnamed_4>
  100b9c:	02a12223          	sw	x10,36(x2)
  100ba0:	18060863          	beq	x12,x0,100d30 <_ZN4core3fmt5write17hc4cfb234790a7690E+0x1f4>
  100ba4:	00c5a503          	lw	x10,12(x11)
  100ba8:	0045aa03          	lw	x20,4(x11)
  100bac:	0005a903          	lw	x18,0(x11)
  100bb0:	000a0a93          	addi	x21,x20,0
  100bb4:	00aa6463          	bltu	x20,x10,100bbc <_ZN4core3fmt5write17hc4cfb234790a7690E+0x80>
  100bb8:	00050a93          	addi	x21,x10,0
  100bbc:	220a8263          	beq	x21,x0,100de0 <_ZN4core3fmt5write17hc4cfb234790a7690E+0x2a4>
  100bc0:	00492503          	lw	x10,4(x18)
  100bc4:	02050a63          	beq	x10,x0,100bf8 <_ZN4core3fmt5write17hc4cfb234790a7690E+0xbc>
  100bc8:	00092483          	lw	x9,0(x18)
  100bcc:	000016b7          	lui	x13,0x1
  100bd0:	0006a783          	lw	x15,0(x13) # 1000 <.Lline_table_start0+0x7b1>
  100bd4:	fff00713          	addi	x14,x0,-1
  100bd8:	14f75a63          	bge	x14,x15,100d2c <_ZN4core3fmt5write17hc4cfb234790a7690E+0x1f0>
  100bdc:	0004c403          	lbu	x8,0(x9)
  100be0:	00148493          	addi	x9,x9,1
  100be4:	f007f793          	andi	x15,x15,-256
  100be8:	0087e7b3          	or	x15,x15,x8
  100bec:	fff50513          	addi	x10,x10,-1
  100bf0:	00f6a023          	sw	x15,0(x13)
  100bf4:	fe0512e3          	bne	x10,x0,100bd8 <_ZN4core3fmt5write17hc4cfb234790a7690E+0x9c>
  100bf8:	0105ac83          	lw	x25,16(x11)
  100bfc:	0145ab03          	lw	x22,20(x11)
  100c00:	00c90d13          	addi	x26,x18,12
  100c04:	01060413          	addi	x8,x12,16
  100c08:	00810993          	addi	x19,x2,8
  100c0c:	00200b93          	addi	x23,x0,2
  100c10:	00100537          	lui	x10,0x100
  100c14:	75c50c13          	addi	x24,x10,1884 # 10075c <_ZN4core3ops8function6FnOnce9call_once17hf95a512840697715E>
  100c18:	000a8493          	addi	x9,x21,0
  100c1c:	ff442503          	lw	x10,-12(x8)
  100c20:	00a12623          	sw	x10,12(x2)
  100c24:	00c40503          	lb	x10,12(x8)
  100c28:	02a10423          	sb	x10,40(x2)
  100c2c:	ff842503          	lw	x10,-8(x8)
  100c30:	00a12423          	sw	x10,8(x2)
  100c34:	00442603          	lw	x12,4(x8)
  100c38:	00842503          	lw	x10,8(x8)
  100c3c:	02060463          	beq	x12,x0,100c64 <_ZN4core3fmt5write17hc4cfb234790a7690E+0x128>
  100c40:	00000593          	addi	x11,x0,0
  100c44:	03760663          	beq	x12,x23,100c70 <_ZN4core3fmt5write17hc4cfb234790a7690E+0x134>
  100c48:	0d657a63          	bgeu	x10,x22,100d1c <_ZN4core3fmt5write17hc4cfb234790a7690E+0x1e0>
  100c4c:	00351513          	slli	x10,x10,0x3
  100c50:	00ac8533          	add	x10,x25,x10
  100c54:	00452583          	lw	x11,4(x10)
  100c58:	01859a63          	bne	x11,x24,100c6c <_ZN4core3fmt5write17hc4cfb234790a7690E+0x130>
  100c5c:	00052503          	lw	x10,0(x10)
  100c60:	00052503          	lw	x10,0(x10)
  100c64:	00100593          	addi	x11,x0,1
  100c68:	0080006f          	jal	x0,100c70 <_ZN4core3fmt5write17hc4cfb234790a7690E+0x134>
  100c6c:	00000593          	addi	x11,x0,0
  100c70:	00b12823          	sw	x11,16(x2)
  100c74:	00a12a23          	sw	x10,20(x2)
  100c78:	ffc42603          	lw	x12,-4(x8)
  100c7c:	00042503          	lw	x10,0(x8)
  100c80:	02060463          	beq	x12,x0,100ca8 <_ZN4core3fmt5write17hc4cfb234790a7690E+0x16c>
  100c84:	00000593          	addi	x11,x0,0
  100c88:	03760263          	beq	x12,x23,100cac <_ZN4core3fmt5write17hc4cfb234790a7690E+0x170>
  100c8c:	09657863          	bgeu	x10,x22,100d1c <_ZN4core3fmt5write17hc4cfb234790a7690E+0x1e0>
  100c90:	00351513          	slli	x10,x10,0x3
  100c94:	00ac8533          	add	x10,x25,x10
  100c98:	00452583          	lw	x11,4(x10)
  100c9c:	07859663          	bne	x11,x24,100d08 <_ZN4core3fmt5write17hc4cfb234790a7690E+0x1cc>
  100ca0:	00052503          	lw	x10,0(x10)
  100ca4:	00052503          	lw	x10,0(x10)
  100ca8:	00100593          	addi	x11,x0,1
  100cac:	00b12c23          	sw	x11,24(x2)
  100cb0:	00a12e23          	sw	x10,28(x2)
  100cb4:	ff042503          	lw	x10,-16(x8)
  100cb8:	07657263          	bgeu	x10,x22,100d1c <_ZN4core3fmt5write17hc4cfb234790a7690E+0x1e0>
  100cbc:	00351513          	slli	x10,x10,0x3
  100cc0:	00ac85b3          	add	x11,x25,x10
  100cc4:	0005a503          	lw	x10,0(x11)
  100cc8:	0045a603          	lw	x12,4(x11)
  100ccc:	00098593          	addi	x11,x19,0
  100cd0:	000600e7          	jalr	x1,0(x12)
  100cd4:	12051c63          	bne	x10,x0,100e0c <_ZN4core3fmt5write17hc4cfb234790a7690E+0x2d0>
  100cd8:	fff48493          	addi	x9,x9,-1
  100cdc:	10048463          	beq	x9,x0,100de4 <_ZN4core3fmt5write17hc4cfb234790a7690E+0x2a8>
  100ce0:	02412683          	lw	x13,36(x2)
  100ce4:	02012503          	lw	x10,32(x2)
  100ce8:	ffcd2583          	lw	x11,-4(x26)
  100cec:	000d2603          	lw	x12,0(x26)
  100cf0:	00c6a683          	lw	x13,12(x13)
  100cf4:	008d0d13          	addi	x26,x26,8
  100cf8:	02040413          	addi	x8,x8,32
  100cfc:	000680e7          	jalr	x1,0(x13)
  100d00:	f0050ee3          	beq	x10,x0,100c1c <_ZN4core3fmt5write17hc4cfb234790a7690E+0xe0>
  100d04:	1080006f          	jal	x0,100e0c <_ZN4core3fmt5write17hc4cfb234790a7690E+0x2d0>
  100d08:	00000593          	addi	x11,x0,0
  100d0c:	00b12c23          	sw	x11,24(x2)
  100d10:	00a12e23          	sw	x10,28(x2)
  100d14:	ff042503          	lw	x10,-16(x8)
  100d18:	fb6562e3          	bltu	x10,x22,100cbc <_ZN4core3fmt5write17hc4cfb234790a7690E+0x180>
  100d1c:	000b0593          	addi	x11,x22,0
  100d20:	00000097          	auipc	x1,0x0
  100d24:	a44080e7          	jalr	x1,-1468(x1) # 100764 <_ZN4core9panicking18panic_bounds_check17h1271d016dbbb83a7E>
  100d28:	c0001073          	unimp
  100d2c:	0000006f          	jal	x0,100d2c <_ZN4core3fmt5write17hc4cfb234790a7690E+0x1f0>
  100d30:	0105a503          	lw	x10,16(x11)
  100d34:	0145a603          	lw	x12,20(x11)
  100d38:	0045aa03          	lw	x20,4(x11)
  100d3c:	0005a903          	lw	x18,0(x11)
  100d40:	000a0a93          	addi	x21,x20,0
  100d44:	00ca6463          	bltu	x20,x12,100d4c <_ZN4core3fmt5write17hc4cfb234790a7690E+0x210>
  100d48:	00060a93          	addi	x21,x12,0
  100d4c:	080a8a63          	beq	x21,x0,100de0 <_ZN4core3fmt5write17hc4cfb234790a7690E+0x2a4>
  100d50:	00492583          	lw	x11,4(x18)
  100d54:	02058a63          	beq	x11,x0,100d88 <_ZN4core3fmt5write17hc4cfb234790a7690E+0x24c>
  100d58:	00092783          	lw	x15,0(x18)
  100d5c:	00001637          	lui	x12,0x1
  100d60:	00062703          	lw	x14,0(x12) # 1000 <.Lline_table_start0+0x7b1>
  100d64:	fff00693          	addi	x13,x0,-1
  100d68:	06e6da63          	bge	x13,x14,100ddc <_ZN4core3fmt5write17hc4cfb234790a7690E+0x2a0>
  100d6c:	0007c483          	lbu	x9,0(x15)
  100d70:	00178793          	addi	x15,x15,1
  100d74:	f0077713          	andi	x14,x14,-256
  100d78:	00976733          	or	x14,x14,x9
  100d7c:	fff58593          	addi	x11,x11,-1
  100d80:	00e62023          	sw	x14,0(x12)
  100d84:	fe0592e3          	bne	x11,x0,100d68 <_ZN4core3fmt5write17hc4cfb234790a7690E+0x22c>
  100d88:	00c90b13          	addi	x22,x18,12
  100d8c:	00450493          	addi	x9,x10,4
  100d90:	00810993          	addi	x19,x2,8
  100d94:	000a8413          	addi	x8,x21,0
  100d98:	0004a603          	lw	x12,0(x9)
  100d9c:	ffc4a503          	lw	x10,-4(x9)
  100da0:	00098593          	addi	x11,x19,0
  100da4:	000600e7          	jalr	x1,0(x12)
  100da8:	06051263          	bne	x10,x0,100e0c <_ZN4core3fmt5write17hc4cfb234790a7690E+0x2d0>
  100dac:	fff40413          	addi	x8,x8,-1
  100db0:	02040a63          	beq	x8,x0,100de4 <_ZN4core3fmt5write17hc4cfb234790a7690E+0x2a8>
  100db4:	02412683          	lw	x13,36(x2)
  100db8:	02012503          	lw	x10,32(x2)
  100dbc:	ffcb2583          	lw	x11,-4(x22)
  100dc0:	000b2603          	lw	x12,0(x22)
  100dc4:	00c6a683          	lw	x13,12(x13)
  100dc8:	008b0b13          	addi	x22,x22,8
  100dcc:	00848493          	addi	x9,x9,8
  100dd0:	000680e7          	jalr	x1,0(x13)
  100dd4:	fc0502e3          	beq	x10,x0,100d98 <_ZN4core3fmt5write17hc4cfb234790a7690E+0x25c>
  100dd8:	0340006f          	jal	x0,100e0c <_ZN4core3fmt5write17hc4cfb234790a7690E+0x2d0>
  100ddc:	0000006f          	jal	x0,100ddc <_ZN4core3fmt5write17hc4cfb234790a7690E+0x2a0>
  100de0:	00000a93          	addi	x21,x0,0
  100de4:	034af863          	bgeu	x21,x20,100e14 <_ZN4core3fmt5write17hc4cfb234790a7690E+0x2d8>
  100de8:	02012503          	lw	x10,32(x2)
  100dec:	02412683          	lw	x13,36(x2)
  100df0:	003a9593          	slli	x11,x21,0x3
  100df4:	00b90633          	add	x12,x18,x11
  100df8:	00062583          	lw	x11,0(x12)
  100dfc:	00462603          	lw	x12,4(x12)
  100e00:	00c6a683          	lw	x13,12(x13)
  100e04:	000680e7          	jalr	x1,0(x13)
  100e08:	00050663          	beq	x10,x0,100e14 <_ZN4core3fmt5write17hc4cfb234790a7690E+0x2d8>
  100e0c:	00100513          	addi	x10,x0,1
  100e10:	0080006f          	jal	x0,100e18 <_ZN4core3fmt5write17hc4cfb234790a7690E+0x2dc>
  100e14:	00000513          	addi	x10,x0,0
  100e18:	03012d03          	lw	x26,48(x2)
  100e1c:	03412c83          	lw	x25,52(x2)
  100e20:	03812c03          	lw	x24,56(x2)
  100e24:	03c12b83          	lw	x23,60(x2)
  100e28:	04012b03          	lw	x22,64(x2)
  100e2c:	04412a83          	lw	x21,68(x2)
  100e30:	04812a03          	lw	x20,72(x2)
  100e34:	04c12983          	lw	x19,76(x2)
  100e38:	05012903          	lw	x18,80(x2)
  100e3c:	05412483          	lw	x9,84(x2)
  100e40:	05812403          	lw	x8,88(x2)
  100e44:	05c12083          	lw	x1,92(x2)
  100e48:	06010113          	addi	x2,x2,96
  100e4c:	00008067          	jalr	x0,0(x1)

00100e50 <_ZN4core3fmt3num3imp52_$LT$impl$u20$core..fmt..Display$u20$for$u20$i32$GT$3fmt17h68e963e7dfee92fbE>:
  100e50:	f9010113          	addi	x2,x2,-112
  100e54:	06112623          	sw	x1,108(x2)
  100e58:	06812423          	sw	x8,104(x2)
  100e5c:	06912223          	sw	x9,100(x2)
  100e60:	07212023          	sw	x18,96(x2)
  100e64:	05312e23          	sw	x19,92(x2)
  100e68:	05412c23          	sw	x20,88(x2)
  100e6c:	05512a23          	sw	x21,84(x2)
  100e70:	05612823          	sw	x22,80(x2)
  100e74:	05712623          	sw	x23,76(x2)
  100e78:	05812423          	sw	x24,72(x2)
  100e7c:	05912223          	sw	x25,68(x2)
  100e80:	05a12023          	sw	x26,64(x2)
  100e84:	03b12e23          	sw	x27,60(x2)
  100e88:	00052403          	lw	x8,0(x10)
  100e8c:	00058a93          	addi	x21,x11,0
  100e90:	41f45513          	srai	x10,x8,0x1f
  100e94:	00a405b3          	add	x11,x8,x10
  100e98:	00a5cb33          	xor	x22,x11,x10
  100e9c:	004b5513          	srli	x10,x22,0x4
  100ea0:	27100593          	addi	x11,x0,625
  100ea4:	02700493          	addi	x9,x0,39
  100ea8:	02b57a63          	bgeu	x10,x11,100edc <_ZN4core3fmt3num3imp52_$LT$impl$u20$core..fmt..Display$u20$for$u20$i32$GT$3fmt17h68e963e7dfee92fbE+0x8c>
  100eac:	06300513          	addi	x10,x0,99
  100eb0:	fff00913          	addi	x18,x0,-1
  100eb4:	11654263          	blt	x10,x22,100fb8 <_ZN4core3fmt3num3imp52_$LT$impl$u20$core..fmt..Display$u20$for$u20$i32$GT$3fmt17h68e963e7dfee92fbE+0x168>
  100eb8:	00a00513          	addi	x10,x0,10
  100ebc:	008925b3          	slt	x11,x18,x8
  100ec0:	16ab5463          	bge	x22,x10,101028 <_ZN4core3fmt3num3imp52_$LT$impl$u20$core..fmt..Display$u20$for$u20$i32$GT$3fmt17h68e963e7dfee92fbE+0x1d8>
  100ec4:	fff48513          	addi	x10,x9,-1
  100ec8:	01510613          	addi	x12,x2,21
  100ecc:	00a60633          	add	x12,x12,x10
  100ed0:	030b0693          	addi	x13,x22,48
  100ed4:	00d60023          	sb	x13,0(x12)
  100ed8:	17c0006f          	jal	x0,101054 <_ZN4core3fmt3num3imp52_$LT$impl$u20$core..fmt..Display$u20$for$u20$i32$GT$3fmt17h68e963e7dfee92fbE+0x204>
  100edc:	00812623          	sw	x8,12(x2)
  100ee0:	01512823          	sw	x21,16(x2)
  100ee4:	00000413          	addi	x8,x0,0
  100ee8:	00002537          	lui	x10,0x2
  100eec:	71050993          	addi	x19,x10,1808 # 2710 <.Lline_table_start0+0x12ac>
  100ef0:	ffffe537          	lui	x10,0xffffe
  100ef4:	8f050a13          	addi	x20,x10,-1808 # ffffd8f0 <_sstack+0xfddfd8f0>
  100ef8:	00010537          	lui	x10,0x10
  100efc:	fff50b93          	addi	x23,x10,-1 # ffff <.Lline_table_start0+0xeb9b>
  100f00:	ffe50c13          	addi	x24,x10,-2
  100f04:	00101537          	lui	x10,0x101
  100f08:	31050c93          	addi	x25,x10,784 # 101310 <.Lanon.463b8e1712595053e4e5ae8ec20c28a1.225>
  100f0c:	01510d13          	addi	x26,x2,21
  100f10:	05f5e537          	lui	x10,0x5f5e
  100f14:	0ff50d93          	addi	x27,x10,255 # 5f5e0ff <_sstack+0x3d5e0ff>
  100f18:	000b0493          	addi	x9,x22,0
  100f1c:	000b0513          	addi	x10,x22,0
  100f20:	00098593          	addi	x11,x19,0
  100f24:	00000097          	auipc	x1,0x0
  100f28:	1e4080e7          	jalr	x1,484(x1) # 101108 <__udivsi3>
  100f2c:	00050b13          	addi	x22,x10,0
  100f30:	000a0593          	addi	x11,x20,0
  100f34:	00000097          	auipc	x1,0x0
  100f38:	1dc080e7          	jalr	x1,476(x1) # 101110 <__mulsi3>
  100f3c:	00950933          	add	x18,x10,x9
  100f40:	01797533          	and	x10,x18,x23
  100f44:	06400593          	addi	x11,x0,100
  100f48:	00000097          	auipc	x1,0x0
  100f4c:	1c0080e7          	jalr	x1,448(x1) # 101108 <__udivsi3>
  100f50:	00151a93          	slli	x21,x10,0x1
  100f54:	f9c00593          	addi	x11,x0,-100
  100f58:	00000097          	auipc	x1,0x0
  100f5c:	1b8080e7          	jalr	x1,440(x1) # 101110 <__mulsi3>
  100f60:	01250533          	add	x10,x10,x18
  100f64:	00151513          	slli	x10,x10,0x1
  100f68:	01857533          	and	x10,x10,x24
  100f6c:	019a85b3          	add	x11,x21,x25
  100f70:	008d0633          	add	x12,x26,x8
  100f74:	0005c683          	lbu	x13,0(x11)
  100f78:	00158583          	lb	x11,1(x11)
  100f7c:	01950533          	add	x10,x10,x25
  100f80:	00150703          	lb	x14,1(x10)
  100f84:	00054503          	lbu	x10,0(x10)
  100f88:	02b60223          	sb	x11,36(x12)
  100f8c:	02d601a3          	sb	x13,35(x12)
  100f90:	02e60323          	sb	x14,38(x12)
  100f94:	02a602a3          	sb	x10,37(x12)
  100f98:	ffc40413          	addi	x8,x8,-4
  100f9c:	f69deee3          	bltu	x27,x9,100f18 <_ZN4core3fmt3num3imp52_$LT$impl$u20$core..fmt..Display$u20$for$u20$i32$GT$3fmt17h68e963e7dfee92fbE+0xc8>
  100fa0:	02740493          	addi	x9,x8,39
  100fa4:	01012a83          	lw	x21,16(x2)
  100fa8:	00c12403          	lw	x8,12(x2)
  100fac:	06300513          	addi	x10,x0,99
  100fb0:	fff00913          	addi	x18,x0,-1
  100fb4:	f16552e3          	bge	x10,x22,100eb8 <_ZN4core3fmt3num3imp52_$LT$impl$u20$core..fmt..Display$u20$for$u20$i32$GT$3fmt17h68e963e7dfee92fbE+0x68>
  100fb8:	00010a37          	lui	x20,0x10
  100fbc:	fffa0513          	addi	x10,x20,-1 # ffff <.Lline_table_start0+0xeb9b>
  100fc0:	00ab7533          	and	x10,x22,x10
  100fc4:	06400593          	addi	x11,x0,100
  100fc8:	00000097          	auipc	x1,0x0
  100fcc:	140080e7          	jalr	x1,320(x1) # 101108 <__udivsi3>
  100fd0:	00050993          	addi	x19,x10,0
  100fd4:	f9c00593          	addi	x11,x0,-100
  100fd8:	00000097          	auipc	x1,0x0
  100fdc:	138080e7          	jalr	x1,312(x1) # 101110 <__mulsi3>
  100fe0:	01650533          	add	x10,x10,x22
  100fe4:	00151513          	slli	x10,x10,0x1
  100fe8:	ffea0593          	addi	x11,x20,-2
  100fec:	00b57533          	and	x10,x10,x11
  100ff0:	ffe48493          	addi	x9,x9,-2
  100ff4:	001015b7          	lui	x11,0x101
  100ff8:	31058593          	addi	x11,x11,784 # 101310 <.Lanon.463b8e1712595053e4e5ae8ec20c28a1.225>
  100ffc:	00b50533          	add	x10,x10,x11
  101000:	00150583          	lb	x11,1(x10)
  101004:	00054503          	lbu	x10,0(x10)
  101008:	01510613          	addi	x12,x2,21
  10100c:	00960633          	add	x12,x12,x9
  101010:	00b600a3          	sb	x11,1(x12)
  101014:	00a60023          	sb	x10,0(x12)
  101018:	00098b13          	addi	x22,x19,0
  10101c:	00a00513          	addi	x10,x0,10
  101020:	008925b3          	slt	x11,x18,x8
  101024:	eaab40e3          	blt	x22,x10,100ec4 <_ZN4core3fmt3num3imp52_$LT$impl$u20$core..fmt..Display$u20$for$u20$i32$GT$3fmt17h68e963e7dfee92fbE+0x74>
  101028:	001b1613          	slli	x12,x22,0x1
  10102c:	ffe48513          	addi	x10,x9,-2
  101030:	001016b7          	lui	x13,0x101
  101034:	31068693          	addi	x13,x13,784 # 101310 <.Lanon.463b8e1712595053e4e5ae8ec20c28a1.225>
  101038:	00d60633          	add	x12,x12,x13
  10103c:	00160683          	lb	x13,1(x12)
  101040:	00064603          	lbu	x12,0(x12)
  101044:	01510713          	addi	x14,x2,21
  101048:	00a70733          	add	x14,x14,x10
  10104c:	00d700a3          	sb	x13,1(x14)
  101050:	00c70023          	sb	x12,0(x14)
  101054:	01510613          	addi	x12,x2,21
  101058:	00a60633          	add	x12,x12,x10
  10105c:	02700693          	addi	x13,x0,39
  101060:	40a686b3          	sub	x13,x13,x10
  101064:	000a8513          	addi	x10,x21,0
  101068:	fffff097          	auipc	x1,0xfffff
  10106c:	724080e7          	jalr	x1,1828(x1) # 10078c <_ZN4core3fmt9Formatter12pad_integral17he2541bb2ad863cd8E>
  101070:	03c12d83          	lw	x27,60(x2)
  101074:	04012d03          	lw	x26,64(x2)
  101078:	04412c83          	lw	x25,68(x2)
  10107c:	04812c03          	lw	x24,72(x2)
  101080:	04c12b83          	lw	x23,76(x2)
  101084:	05012b03          	lw	x22,80(x2)
  101088:	05412a83          	lw	x21,84(x2)
  10108c:	05812a03          	lw	x20,88(x2)
  101090:	05c12983          	lw	x19,92(x2)
  101094:	06012903          	lw	x18,96(x2)
  101098:	06412483          	lw	x9,100(x2)
  10109c:	06812403          	lw	x8,104(x2)
  1010a0:	06c12083          	lw	x1,108(x2)
  1010a4:	07010113          	addi	x2,x2,112
  1010a8:	00008067          	jalr	x0,0(x1)

001010ac <rust_begin_unwind>:
  1010ac:	0330000f          	fence	rw,rw
  1010b0:	0000006f          	jal	x0,1010b0 <rust_begin_unwind+0x4>

001010b4 <DefaultExceptionHandler>:
  1010b4:	0000006f          	jal	x0,1010b4 <DefaultExceptionHandler>

001010b8 <DefaultInterruptHandler>:
  1010b8:	0000006f          	jal	x0,1010b8 <DefaultInterruptHandler>

001010bc <default_pre_init>:
  1010bc:	00008067          	jalr	x0,0(x1)

001010c0 <default_mp_hook>:
  1010c0:	ff010113          	addi	x2,x2,-16
  1010c4:	00112623          	sw	x1,12(x2)
  1010c8:	00000097          	auipc	x1,0x0
  1010cc:	030080e7          	jalr	x1,48(x1) # 1010f8 <__read_mhartid>
  1010d0:	00050863          	beq	x10,x0,1010e0 <default_mp_hook+0x20>
  1010d4:	00000097          	auipc	x1,0x0
  1010d8:	01c080e7          	jalr	x1,28(x1) # 1010f0 <__wfi>
  1010dc:	ff9ff06f          	jal	x0,1010d4 <default_mp_hook+0x14>
  1010e0:	00100513          	addi	x10,x0,1
  1010e4:	00c12083          	lw	x1,12(x2)
  1010e8:	01010113          	addi	x2,x2,16
  1010ec:	00008067          	jalr	x0,0(x1)

001010f0 <__wfi>:
  1010f0:	10500073          	wfi
  1010f4:	00008067          	jalr	x0,0(x1)

001010f8 <__read_mhartid>:
  1010f8:	f1402573          	csrrs	x10,mhartid,x0
  1010fc:	00008067          	jalr	x0,0(x1)

00101100 <__read_mcause>:
  101100:	34202573          	csrrs	x10,mcause,x0
  101104:	00008067          	jalr	x0,0(x1)

00101108 <__udivsi3>:
  101108:	00000317          	auipc	x6,0x0
  10110c:	03430067          	jalr	x0,52(x6) # 10113c <_ZN17compiler_builtins3int19specialized_div_rem11u32_div_rem17hce43cd8321e99150E>

00101110 <__mulsi3>:
  101110:	00000613          	addi	x12,x0,0
  101114:	02050063          	beq	x10,x0,101134 <__mulsi3+0x24>
  101118:	00157693          	andi	x13,x10,1
  10111c:	40d006b3          	sub	x13,x0,x13
  101120:	00b6f6b3          	and	x13,x13,x11
  101124:	00c68633          	add	x12,x13,x12
  101128:	00155513          	srli	x10,x10,0x1
  10112c:	00159593          	slli	x11,x11,0x1
  101130:	fe0514e3          	bne	x10,x0,101118 <__mulsi3+0x8>
  101134:	00060513          	addi	x10,x12,0
  101138:	00008067          	jalr	x0,0(x1)

0010113c <_ZN17compiler_builtins3int19specialized_div_rem11u32_div_rem17hce43cd8321e99150E>:
  10113c:	00050613          	addi	x12,x10,0
  101140:	00b57863          	bgeu	x10,x11,101150 <_ZN17compiler_builtins3int19specialized_div_rem11u32_div_rem17hce43cd8321e99150E+0x14>
  101144:	00000513          	addi	x10,x0,0
  101148:	00060593          	addi	x11,x12,0
  10114c:	00008067          	jalr	x0,0(x1)
  101150:	01065713          	srli	x14,x12,0x10
  101154:	00b73533          	sltu	x10,x14,x11
  101158:	00154693          	xori	x13,x10,1
  10115c:	00060513          	addi	x10,x12,0
  101160:	00b76463          	bltu	x14,x11,101168 <_ZN17compiler_builtins3int19specialized_div_rem11u32_div_rem17hce43cd8321e99150E+0x2c>
  101164:	00070513          	addi	x10,x14,0
  101168:	00469693          	slli	x13,x13,0x4
  10116c:	00855793          	srli	x15,x10,0x8
  101170:	00b7b733          	sltu	x14,x15,x11
  101174:	00174713          	xori	x14,x14,1
  101178:	00b7e463          	bltu	x15,x11,101180 <_ZN17compiler_builtins3int19specialized_div_rem11u32_div_rem17hce43cd8321e99150E+0x44>
  10117c:	00078513          	addi	x10,x15,0
  101180:	00371713          	slli	x14,x14,0x3
  101184:	00d766b3          	or	x13,x14,x13
  101188:	00455793          	srli	x15,x10,0x4
  10118c:	00b7b733          	sltu	x14,x15,x11
  101190:	00174713          	xori	x14,x14,1
  101194:	00b7e463          	bltu	x15,x11,10119c <_ZN17compiler_builtins3int19specialized_div_rem11u32_div_rem17hce43cd8321e99150E+0x60>
  101198:	00078513          	addi	x10,x15,0
  10119c:	00271713          	slli	x14,x14,0x2
  1011a0:	00e6e6b3          	or	x13,x13,x14
  1011a4:	00255793          	srli	x15,x10,0x2
  1011a8:	00b7b733          	sltu	x14,x15,x11
  1011ac:	00174713          	xori	x14,x14,1
  1011b0:	00b7e463          	bltu	x15,x11,1011b8 <_ZN17compiler_builtins3int19specialized_div_rem11u32_div_rem17hce43cd8321e99150E+0x7c>
  1011b4:	00078513          	addi	x10,x15,0
  1011b8:	00171713          	slli	x14,x14,0x1
  1011bc:	00e6e6b3          	or	x13,x13,x14
  1011c0:	00155513          	srli	x10,x10,0x1
  1011c4:	00b53533          	sltu	x10,x10,x11
  1011c8:	00154513          	xori	x10,x10,1
  1011cc:	00a6e6b3          	or	x13,x13,x10
  1011d0:	00d59733          	sll	x14,x11,x13
  1011d4:	40e60633          	sub	x12,x12,x14
  1011d8:	00100513          	addi	x10,x0,1
  1011dc:	00d51533          	sll	x10,x10,x13
  1011e0:	04b66063          	bltu	x12,x11,101220 <_ZN17compiler_builtins3int19specialized_div_rem11u32_div_rem17hce43cd8321e99150E+0xe4>
  1011e4:	fff00893          	addi	x17,x0,-1
  1011e8:	00e8d663          	bge	x17,x14,1011f4 <_ZN17compiler_builtins3int19specialized_div_rem11u32_div_rem17hce43cd8321e99150E+0xb8>
  1011ec:	00050813          	addi	x16,x10,0
  1011f0:	0500006f          	jal	x0,101240 <_ZN17compiler_builtins3int19specialized_div_rem11u32_div_rem17hce43cd8321e99150E+0x104>
  1011f4:	00175713          	srli	x14,x14,0x1
  1011f8:	fff68693          	addi	x13,x13,-1
  1011fc:	00100793          	addi	x15,x0,1
  101200:	00d79833          	sll	x16,x15,x13
  101204:	40e607b3          	sub	x15,x12,x14
  101208:	00080293          	addi	x5,x16,0
  10120c:	00f8de63          	bge	x17,x15,101228 <_ZN17compiler_builtins3int19specialized_div_rem11u32_div_rem17hce43cd8321e99150E+0xec>
  101210:	02f8d063          	bge	x17,x15,101230 <_ZN17compiler_builtins3int19specialized_div_rem11u32_div_rem17hce43cd8321e99150E+0xf4>
  101214:	00a2e533          	or	x10,x5,x10
  101218:	00078613          	addi	x12,x15,0
  10121c:	02b7f263          	bgeu	x15,x11,101240 <_ZN17compiler_builtins3int19specialized_div_rem11u32_div_rem17hce43cd8321e99150E+0x104>
  101220:	00060593          	addi	x11,x12,0
  101224:	00008067          	jalr	x0,0(x1)
  101228:	00000293          	addi	x5,x0,0
  10122c:	fef8c4e3          	blt	x17,x15,101214 <_ZN17compiler_builtins3int19specialized_div_rem11u32_div_rem17hce43cd8321e99150E+0xd8>
  101230:	00060793          	addi	x15,x12,0
  101234:	00a2e533          	or	x10,x5,x10
  101238:	00078613          	addi	x12,x15,0
  10123c:	feb7e2e3          	bltu	x15,x11,101220 <_ZN17compiler_builtins3int19specialized_div_rem11u32_div_rem17hce43cd8321e99150E+0xe4>
  101240:	fff80813          	addi	x16,x16,-1
  101244:	02068463          	beq	x13,x0,10126c <_ZN17compiler_builtins3int19specialized_div_rem11u32_div_rem17hce43cd8321e99150E+0x130>
  101248:	fff70713          	addi	x14,x14,-1
  10124c:	00068793          	addi	x15,x13,0
  101250:	fff78793          	addi	x15,x15,-1
  101254:	00161613          	slli	x12,x12,0x1
  101258:	40e60633          	sub	x12,x12,x14
  10125c:	41f65593          	srai	x11,x12,0x1f
  101260:	00e5f5b3          	and	x11,x11,x14
  101264:	00c58633          	add	x12,x11,x12
  101268:	fe0794e3          	bne	x15,x0,101250 <_ZN17compiler_builtins3int19specialized_div_rem11u32_div_rem17hce43cd8321e99150E+0x114>
  10126c:	010675b3          	and	x11,x12,x16
  101270:	00a5e533          	or	x10,x11,x10
  101274:	00d65633          	srl	x12,x12,x13
  101278:	00060593          	addi	x11,x12,0
  10127c:	00008067          	jalr	x0,0(x1)

00101280 <_setup_interrupts>:
  101280:	fffff297          	auipc	x5,0xfffff
  101284:	edc28293          	addi	x5,x5,-292 # 10015c <_start_trap>
  101288:	30529073          	csrrw	x0,mtvec,x5
  10128c:	00008067          	jalr	x0,0(x1)

00101290 <abort>:
  101290:	0000006f          	jal	x0,101290 <abort>
