
video.elf:     file format elf32-littleriscv


Disassembly of section .text:

00100000 <_start>:
  100000:	001000b7          	lui	x1,0x100
  100004:	00808067          	jalr	x0,8(x1) # 100008 <_abs_start>

00100008 <_abs_start>:
  100008:	30405073          	csrrwi	x0,mie,0
  10000c:	34405073          	csrrwi	x0,mip,0
  100010:	00000093          	addi	x1,x0,0
  100014:	00000113          	addi	x2,x0,0
  100018:	00000193          	addi	x3,x0,0
  10001c:	00000213          	addi	x4,x0,0
  100020:	00000293          	addi	x5,x0,0
  100024:	00000313          	addi	x6,x0,0
  100028:	00000393          	addi	x7,x0,0
  10002c:	00000413          	addi	x8,x0,0
  100030:	00000493          	addi	x9,x0,0
  100034:	00000513          	addi	x10,x0,0
  100038:	00000593          	addi	x11,x0,0
  10003c:	00000613          	addi	x12,x0,0
  100040:	00000693          	addi	x13,x0,0
  100044:	00000713          	addi	x14,x0,0
  100048:	00000793          	addi	x15,x0,0
  10004c:	00000813          	addi	x16,x0,0
  100050:	00000893          	addi	x17,x0,0
  100054:	00000913          	addi	x18,x0,0
  100058:	00000993          	addi	x19,x0,0
  10005c:	00000a13          	addi	x20,x0,0
  100060:	00000a93          	addi	x21,x0,0
  100064:	00000b13          	addi	x22,x0,0
  100068:	00000b93          	addi	x23,x0,0
  10006c:	00000c13          	addi	x24,x0,0
  100070:	00000c93          	addi	x25,x0,0
  100074:	00000d13          	addi	x26,x0,0
  100078:	00000d93          	addi	x27,x0,0
  10007c:	00000e13          	addi	x28,x0,0
  100080:	00000e93          	addi	x29,x0,0
  100084:	00000f13          	addi	x30,x0,0
  100088:	00000f93          	addi	x31,x0,0
  10008c:	00100197          	auipc	x3,0x100
  100090:	77418193          	addi	x3,x3,1908 # 200800 <__global_pointer$>
  100094:	f1402673          	csrrs	x12,mhartid,x0
  100098:	000002b7          	lui	x5,0x0
  10009c:	00028293          	addi	x5,x5,0 # 0 <_heap_size>
  1000a0:	00c2f463          	bgeu	x5,x12,1000a8 <_abs_start+0xa0>
  1000a4:	4d40006f          	jal	x0,100578 <abort>
  1000a8:	02100117          	auipc	x2,0x2100
  1000ac:	f5810113          	addi	x2,x2,-168 # 2200000 <_sstack>
  1000b0:	000012b7          	lui	x5,0x1
  1000b4:	80028293          	addi	x5,x5,-2048 # 800 <_hart_stack_size>
  1000b8:	00060c63          	beq	x12,x0,1000d0 <.L2^B1>
  1000bc:	00060313          	addi	x6,x12,0
  1000c0:	00028393          	addi	x7,x5,0

001000c4 <.L1^B1>:
  1000c4:	007282b3          	add	x5,x5,x7
  1000c8:	fff30313          	addi	x6,x6,-1
  1000cc:	fe031ce3          	bne	x6,x0,1000c4 <.L1^B1>

001000d0 <.L2^B1>:
  1000d0:	40510133          	sub	x2,x2,x5
  1000d4:	00010433          	add	x8,x2,x0
  1000d8:	0040006f          	jal	x0,1000dc <_start_rust>

001000dc <_start_rust>:
  1000dc:	ff010113          	addi	x2,x2,-16
  1000e0:	00112623          	sw	x1,12(x2)
  1000e4:	00000097          	auipc	x1,0x0
  1000e8:	424080e7          	jalr	x1,1060(x1) # 100508 <default_mp_hook>
  1000ec:	04050e63          	beq	x10,x0,100148 <_start_rust+0x6c>
  1000f0:	00000097          	auipc	x1,0x0
  1000f4:	414080e7          	jalr	x1,1044(x1) # 100504 <default_pre_init>
  1000f8:	00200537          	lui	x10,0x200
  1000fc:	01850513          	addi	x10,x10,24 # 200018 <_ebss>
  100100:	002005b7          	lui	x11,0x200
  100104:	00058593          	addi	x11,x11,0 # 200000 <_ZN5video7COUNTER17hf830ba7e021d4f87E>
  100108:	00a5f863          	bgeu	x11,x10,100118 <_start_rust+0x3c>
  10010c:	0005a023          	sw	x0,0(x11)
  100110:	00458593          	addi	x11,x11,4
  100114:	fea5ece3          	bltu	x11,x10,10010c <_start_rust+0x30>
  100118:	00200537          	lui	x10,0x200
  10011c:	00050513          	addi	x10,x10,0 # 200000 <_ZN5video7COUNTER17hf830ba7e021d4f87E>
  100120:	002005b7          	lui	x11,0x200
  100124:	00058593          	addi	x11,x11,0 # 200000 <_ZN5video7COUNTER17hf830ba7e021d4f87E>
  100128:	02a5f063          	bgeu	x11,x10,100148 <_start_rust+0x6c>
  10012c:	00100637          	lui	x12,0x100
  100130:	5ac60613          	addi	x12,x12,1452 # 1005ac <_sidata>
  100134:	00062683          	lw	x13,0(x12)
  100138:	00d5a023          	sw	x13,0(x11)
  10013c:	00458593          	addi	x11,x11,4
  100140:	00460613          	addi	x12,x12,4
  100144:	fea5e8e3          	bltu	x11,x10,100134 <_start_rust+0x58>
  100148:	00000097          	auipc	x1,0x0
  10014c:	420080e7          	jalr	x1,1056(x1) # 100568 <_setup_interrupts>
  100150:	00000097          	auipc	x1,0x0
  100154:	204080e7          	jalr	x1,516(x1) # 100354 <main>
  100158:	c0001073          	unimp

0010015c <_start_trap>:
  10015c:	fc010113          	addi	x2,x2,-64
  100160:	00112023          	sw	x1,0(x2)
  100164:	00512223          	sw	x5,4(x2)
  100168:	00612423          	sw	x6,8(x2)
  10016c:	00712623          	sw	x7,12(x2)
  100170:	01c12823          	sw	x28,16(x2)
  100174:	01d12a23          	sw	x29,20(x2)
  100178:	01e12c23          	sw	x30,24(x2)
  10017c:	01f12e23          	sw	x31,28(x2)
  100180:	02a12023          	sw	x10,32(x2)
  100184:	02b12223          	sw	x11,36(x2)
  100188:	02c12423          	sw	x12,40(x2)
  10018c:	02d12623          	sw	x13,44(x2)
  100190:	02e12823          	sw	x14,48(x2)
  100194:	02f12a23          	sw	x15,52(x2)
  100198:	03012c23          	sw	x16,56(x2)
  10019c:	03112e23          	sw	x17,60(x2)
  1001a0:	00010533          	add	x10,x2,x0
  1001a4:	04c000ef          	jal	x1,1001f0 <_start_trap_rust>
  1001a8:	00012083          	lw	x1,0(x2)
  1001ac:	00412283          	lw	x5,4(x2)
  1001b0:	00812303          	lw	x6,8(x2)
  1001b4:	00c12383          	lw	x7,12(x2)
  1001b8:	01012e03          	lw	x28,16(x2)
  1001bc:	01412e83          	lw	x29,20(x2)
  1001c0:	01812f03          	lw	x30,24(x2)
  1001c4:	01c12f83          	lw	x31,28(x2)
  1001c8:	02012503          	lw	x10,32(x2)
  1001cc:	02412583          	lw	x11,36(x2)
  1001d0:	02812603          	lw	x12,40(x2)
  1001d4:	02c12683          	lw	x13,44(x2)
  1001d8:	03012703          	lw	x14,48(x2)
  1001dc:	03412783          	lw	x15,52(x2)
  1001e0:	03812803          	lw	x16,56(x2)
  1001e4:	03c12883          	lw	x17,60(x2)
  1001e8:	04010113          	addi	x2,x2,64
  1001ec:	30200073          	mret

001001f0 <_start_trap_rust>:
  1001f0:	ff010113          	addi	x2,x2,-16
  1001f4:	00112623          	sw	x1,12(x2)
  1001f8:	00812423          	sw	x8,8(x2)
  1001fc:	00050413          	addi	x8,x10,0
  100200:	00000097          	auipc	x1,0x0
  100204:	360080e7          	jalr	x1,864(x1) # 100560 <__read_mcause>
  100208:	fff00593          	addi	x11,x0,-1
  10020c:	00a5de63          	bge	x11,x10,100228 <_start_trap_rust+0x38>
  100210:	00040513          	addi	x10,x8,0
  100214:	00812403          	lw	x8,8(x2)
  100218:	00c12083          	lw	x1,12(x2)
  10021c:	01010113          	addi	x2,x2,16
  100220:	00000317          	auipc	x6,0x0
  100224:	2dc30067          	jalr	x0,732(x6) # 1004fc <DefaultExceptionHandler>
  100228:	800005b7          	lui	x11,0x80000
  10022c:	fff58593          	addi	x11,x11,-1 # 7fffffff <_sstack+0x7ddfffff>
  100230:	00b57533          	and	x10,x10,x11
  100234:	00c00593          	addi	x11,x0,12
  100238:	02b57663          	bgeu	x10,x11,100264 <_start_trap_rust+0x74>
  10023c:	001005b7          	lui	x11,0x100
  100240:	57c58593          	addi	x11,x11,1404 # 10057c <__INTERRUPTS>
  100244:	00251513          	slli	x10,x10,0x2
  100248:	00b50533          	add	x10,x10,x11
  10024c:	00052783          	lw	x15,0(x10)
  100250:	00078a63          	beq	x15,x0,100264 <_start_trap_rust+0x74>
  100254:	00812403          	lw	x8,8(x2)
  100258:	00c12083          	lw	x1,12(x2)
  10025c:	01010113          	addi	x2,x2,16
  100260:	00078067          	jalr	x0,0(x15)
  100264:	00812403          	lw	x8,8(x2)
  100268:	00c12083          	lw	x1,12(x2)
  10026c:	01010113          	addi	x2,x2,16
  100270:	00000317          	auipc	x6,0x0
  100274:	29030067          	jalr	x0,656(x6) # 100500 <DefaultInterruptHandler>

00100278 <MachineTimer>:
  100278:	ff010113          	addi	x2,x2,-16
  10027c:	00112623          	sw	x1,12(x2)
  100280:	08000513          	addi	x10,x0,128
  100284:	00000097          	auipc	x1,0x0
  100288:	2d4080e7          	jalr	x1,724(x1) # 100558 <__clear_mie>
  10028c:	00002537          	lui	x10,0x2
  100290:	00052023          	sw	x0,0(x10) # 2000 <_hart_stack_size+0x1800>
  100294:	010005b7          	lui	x11,0x1000
  100298:	00b52423          	sw	x11,8(x10)
  10029c:	08000513          	addi	x10,x0,128
  1002a0:	00000097          	auipc	x1,0x0
  1002a4:	2b0080e7          	jalr	x1,688(x1) # 100550 <__set_mie>
  1002a8:	0004bf37          	lui	x30,0x4b
  1002ac:	100005b7          	lui	x11,0x10000
  1002b0:	002002b7          	lui	x5,0x200
  1002b4:	002008b7          	lui	x17,0x200
  1002b8:	00100813          	addi	x16,x0,1
  1002bc:	00488793          	addi	x15,x17,4 # 200004 <_ZN5video3RNG17h510ade71db0dd441E>
  1002c0:	0002a703          	lw	x14,0(x5) # 200000 <_ZN5video7COUNTER17hf830ba7e021d4f87E>
  1002c4:	0048a683          	lw	x13,4(x17)
  1002c8:	00170713          	addi	x14,x14,1
  1002cc:	00e2a023          	sw	x14,0(x5)
  1002d0:	07069c63          	bne	x13,x16,100348 <MachineTimer+0xd0>
  1002d4:	0047a683          	lw	x13,4(x15)
  1002d8:	0107ae83          	lw	x29,16(x15)
  1002dc:	00de8633          	add	x12,x29,x13
  1002e0:	01965313          	srli	x6,x12,0x19
  1002e4:	00761393          	slli	x7,x12,0x7
  1002e8:	0087a603          	lw	x12,8(x15)
  1002ec:	00c7ae03          	lw	x28,12(x15)
  1002f0:	0063e733          	or	x14,x7,x6
  1002f4:	00d70333          	add	x6,x14,x13
  1002f8:	00961393          	slli	x7,x12,0x9
  1002fc:	00de4733          	xor	x14,x28,x13
  100300:	01d64533          	xor	x10,x12,x29
  100304:	00c74633          	xor	x12,x14,x12
  100308:	00c7a423          	sw	x12,8(x15)
  10030c:	00d54633          	xor	x12,x10,x13
  100310:	00c7a223          	sw	x12,4(x15)
  100314:	00774633          	xor	x12,x14,x7
  100318:	00c7a623          	sw	x12,12(x15)
  10031c:	01555613          	srli	x12,x10,0x15
  100320:	00b51513          	slli	x10,x10,0xb
  100324:	00c56533          	or	x10,x10,x12
  100328:	00a7a823          	sw	x10,16(x15)
  10032c:	00658023          	sb	x6,0(x11) # 10000000 <_sstack+0xde00000>
  100330:	ffff0f13          	addi	x30,x30,-1 # 4afff <_hart_stack_size+0x4a7ff>
  100334:	00158593          	addi	x11,x11,1
  100338:	f80f14e3          	bne	x30,x0,1002c0 <MachineTimer+0x48>
  10033c:	00c12083          	lw	x1,12(x2)
  100340:	01010113          	addi	x2,x2,16
  100344:	00008067          	jalr	x0,0(x1)
  100348:	00000097          	auipc	x1,0x0
  10034c:	0ec080e7          	jalr	x1,236(x1) # 100434 <_ZN4core9panicking5panic17h1e4bec584ca2162eE>
  100350:	c0001073          	unimp

00100354 <main>:
  100354:	fd010113          	addi	x2,x2,-48
  100358:	02112623          	sw	x1,44(x2)
  10035c:	00000513          	addi	x10,x0,0
  100360:	02012423          	sw	x0,40(x2)
  100364:	02012223          	sw	x0,36(x2)
  100368:	02012023          	sw	x0,32(x2)
  10036c:	00012e23          	sw	x0,28(x2)
  100370:	01c10593          	addi	x11,x2,28
  100374:	01000613          	addi	x12,x0,16
  100378:	02c50c63          	beq	x10,x12,1003b0 <main+0x5c>
  10037c:	00a586b3          	add	x13,x11,x10
  100380:	0006c683          	lbu	x13,0(x13)
  100384:	00150513          	addi	x10,x10,1
  100388:	fe0688e3          	beq	x13,x0,100378 <main+0x24>
  10038c:	02812503          	lw	x10,40(x2)
  100390:	02412583          	lw	x11,36(x2)
  100394:	02012603          	lw	x12,32(x2)
  100398:	01c12683          	lw	x13,28(x2)
  10039c:	00a12a23          	sw	x10,20(x2)
  1003a0:	00b12823          	sw	x11,16(x2)
  1003a4:	00c12623          	sw	x12,12(x2)
  1003a8:	00d12423          	sw	x13,8(x2)
  1003ac:	0100006f          	jal	x0,1003bc <main+0x68>
  1003b0:	00810513          	addi	x10,x2,8
  1003b4:	00000097          	auipc	x1,0x0
  1003b8:	0b0080e7          	jalr	x1,176(x1) # 100464 <_ZN93_$LT$rand..rngs..xoshiro128plusplus..Xoshiro128PlusPlus$u20$as$u20$rand_core..SeedableRng$GT$13seed_from_u6417h3f4d70b16d505574E>
  1003bc:	00c12503          	lw	x10,12(x2)
  1003c0:	01012583          	lw	x11,16(x2)
  1003c4:	02a12023          	sw	x10,32(x2)
  1003c8:	02b12223          	sw	x11,36(x2)
  1003cc:	01412603          	lw	x12,20(x2)
  1003d0:	00812683          	lw	x13,8(x2)
  1003d4:	00200737          	lui	x14,0x200
  1003d8:	00100793          	addi	x15,x0,1
  1003dc:	00f72223          	sw	x15,4(x14) # 200004 <_ZN5video3RNG17h510ade71db0dd441E>
  1003e0:	00470713          	addi	x14,x14,4
  1003e4:	00d72223          	sw	x13,4(x14)
  1003e8:	00a72423          	sw	x10,8(x14)
  1003ec:	00b72623          	sw	x11,12(x14)
  1003f0:	00c72823          	sw	x12,16(x14)
  1003f4:	00800513          	addi	x10,x0,8
  1003f8:	00000097          	auipc	x1,0x0
  1003fc:	150080e7          	jalr	x1,336(x1) # 100548 <__set_mstatus>
  100400:	08000513          	addi	x10,x0,128
  100404:	00000097          	auipc	x1,0x0
  100408:	154080e7          	jalr	x1,340(x1) # 100558 <__clear_mie>
  10040c:	00002537          	lui	x10,0x2
  100410:	00052023          	sw	x0,0(x10) # 2000 <_hart_stack_size+0x1800>
  100414:	010005b7          	lui	x11,0x1000
  100418:	00b52423          	sw	x11,8(x10)
  10041c:	08000513          	addi	x10,x0,128
  100420:	00000097          	auipc	x1,0x0
  100424:	130080e7          	jalr	x1,304(x1) # 100550 <__set_mie>
  100428:	00000097          	auipc	x1,0x0
  10042c:	110080e7          	jalr	x1,272(x1) # 100538 <__wfi>
  100430:	ff9ff06f          	jal	x0,100428 <main+0xd4>

00100434 <_ZN4core9panicking5panic17h1e4bec584ca2162eE>:
  100434:	ff010113          	addi	x2,x2,-16
  100438:	00112623          	sw	x1,12(x2)
  10043c:	00000097          	auipc	x1,0x0
  100440:	00c080e7          	jalr	x1,12(x1) # 100448 <_ZN4core9panicking9panic_fmt17h9b4c539136e2bca5E>
  100444:	c0001073          	unimp

00100448 <_ZN4core9panicking9panic_fmt17h9b4c539136e2bca5E>:
  100448:	ff010113          	addi	x2,x2,-16
  10044c:	00112623          	sw	x1,12(x2)
  100450:	00000097          	auipc	x1,0x0
  100454:	00c080e7          	jalr	x1,12(x1) # 10045c <rust_begin_unwind>
  100458:	c0001073          	unimp

0010045c <rust_begin_unwind>:
  10045c:	0330000f          	fence	rw,rw
  100460:	0000006f          	jal	x0,100460 <rust_begin_unwind+0x4>

00100464 <_ZN93_$LT$rand..rngs..xoshiro128plusplus..Xoshiro128PlusPlus$u20$as$u20$rand_core..SeedableRng$GT$13seed_from_u6417h3f4d70b16d505574E>:
  100464:	fe010113          	addi	x2,x2,-32
  100468:	00112e23          	sw	x1,28(x2)
  10046c:	00000593          	addi	x11,x0,0
  100470:	e220b637          	lui	x12,0xe220b
  100474:	83960613          	addi	x12,x12,-1991 # e220a839 <_sstack+0xe000a839>
  100478:	00c12623          	sw	x12,12(x2)
  10047c:	7b1dd637          	lui	x12,0x7b1dd
  100480:	daf60613          	addi	x12,x12,-593 # 7b1dcdaf <_sstack+0x78fdcdaf>
  100484:	00c12423          	sw	x12,8(x2)
  100488:	6e78a637          	lui	x12,0x6e78a
  10048c:	e6a60613          	addi	x12,x12,-406 # 6e789e6a <_sstack+0x6c589e6a>
  100490:	00c12a23          	sw	x12,20(x2)
  100494:	a1b96637          	lui	x12,0xa1b96
  100498:	5f460613          	addi	x12,x12,1524 # a1b965f4 <_sstack+0x9f9965f4>
  10049c:	00c12823          	sw	x12,16(x2)
  1004a0:	00810613          	addi	x12,x2,8
  1004a4:	01000693          	addi	x13,x0,16
  1004a8:	04d58063          	beq	x11,x13,1004e8 <_ZN93_$LT$rand..rngs..xoshiro128plusplus..Xoshiro128PlusPlus$u20$as$u20$rand_core..SeedableRng$GT$13seed_from_u6417h3f4d70b16d505574E+0x84>
  1004ac:	00b60733          	add	x14,x12,x11
  1004b0:	00074703          	lbu	x14,0(x14)
  1004b4:	00158593          	addi	x11,x11,1 # 1000001 <__global_pointer$+0xdff801>
  1004b8:	fe0708e3          	beq	x14,x0,1004a8 <_ZN93_$LT$rand..rngs..xoshiro128plusplus..Xoshiro128PlusPlus$u20$as$u20$rand_core..SeedableRng$GT$13seed_from_u6417h3f4d70b16d505574E+0x44>
  1004bc:	01412583          	lw	x11,20(x2)
  1004c0:	01012603          	lw	x12,16(x2)
  1004c4:	00c12683          	lw	x13,12(x2)
  1004c8:	00812703          	lw	x14,8(x2)
  1004cc:	00b52623          	sw	x11,12(x10)
  1004d0:	00c52423          	sw	x12,8(x10)
  1004d4:	00d52223          	sw	x13,4(x10)
  1004d8:	00e52023          	sw	x14,0(x10)
  1004dc:	01c12083          	lw	x1,28(x2)
  1004e0:	02010113          	addi	x2,x2,32
  1004e4:	00008067          	jalr	x0,0(x1)
  1004e8:	00000097          	auipc	x1,0x0
  1004ec:	f7c080e7          	jalr	x1,-132(x1) # 100464 <_ZN93_$LT$rand..rngs..xoshiro128plusplus..Xoshiro128PlusPlus$u20$as$u20$rand_core..SeedableRng$GT$13seed_from_u6417h3f4d70b16d505574E>
  1004f0:	01c12083          	lw	x1,28(x2)
  1004f4:	02010113          	addi	x2,x2,32
  1004f8:	00008067          	jalr	x0,0(x1)

001004fc <DefaultExceptionHandler>:
  1004fc:	0000006f          	jal	x0,1004fc <DefaultExceptionHandler>

00100500 <DefaultInterruptHandler>:
  100500:	0000006f          	jal	x0,100500 <DefaultInterruptHandler>

00100504 <default_pre_init>:
  100504:	00008067          	jalr	x0,0(x1)

00100508 <default_mp_hook>:
  100508:	ff010113          	addi	x2,x2,-16
  10050c:	00112623          	sw	x1,12(x2)
  100510:	00000097          	auipc	x1,0x0
  100514:	030080e7          	jalr	x1,48(x1) # 100540 <__read_mhartid>
  100518:	00050863          	beq	x10,x0,100528 <default_mp_hook+0x20>
  10051c:	00000097          	auipc	x1,0x0
  100520:	01c080e7          	jalr	x1,28(x1) # 100538 <__wfi>
  100524:	ff9ff06f          	jal	x0,10051c <default_mp_hook+0x14>
  100528:	00100513          	addi	x10,x0,1
  10052c:	00c12083          	lw	x1,12(x2)
  100530:	01010113          	addi	x2,x2,16
  100534:	00008067          	jalr	x0,0(x1)

00100538 <__wfi>:
  100538:	10500073          	wfi
  10053c:	00008067          	jalr	x0,0(x1)

00100540 <__read_mhartid>:
  100540:	f1402573          	csrrs	x10,mhartid,x0
  100544:	00008067          	jalr	x0,0(x1)

00100548 <__set_mstatus>:
  100548:	30052073          	csrrs	x0,mstatus,x10
  10054c:	00008067          	jalr	x0,0(x1)

00100550 <__set_mie>:
  100550:	30452073          	csrrs	x0,mie,x10
  100554:	00008067          	jalr	x0,0(x1)

00100558 <__clear_mie>:
  100558:	30453073          	csrrc	x0,mie,x10
  10055c:	00008067          	jalr	x0,0(x1)

00100560 <__read_mcause>:
  100560:	34202573          	csrrs	x10,mcause,x0
  100564:	00008067          	jalr	x0,0(x1)

00100568 <_setup_interrupts>:
  100568:	00000297          	auipc	x5,0x0
  10056c:	bf428293          	addi	x5,x5,-1036 # 10015c <_start_trap>
  100570:	30529073          	csrrw	x0,mtvec,x5
  100574:	00008067          	jalr	x0,0(x1)

00100578 <abort>:
  100578:	0000006f          	jal	x0,100578 <abort>
