
factorial.elf:     file format elf32-littleriscv


Disassembly of section .text:

00100000 <_start>:
  100000:	00200137          	lui	x2,0x200
  100004:	514000ef          	jal	x1,100518 <main>
  100008:	00000013          	addi	x0,x0,0
  10000c:	00000013          	addi	x0,x0,0
  100010:	00000013          	addi	x0,x0,0
  100014:	00000013          	addi	x0,x0,0
  100018:	00000013          	addi	x0,x0,0

0010001c <halt>:
  10001c:	00000063          	beq	x0,x0,10001c <halt>

00100020 <fac>:
  100020:	00100793          	addi	x15,x0,1
  100024:	04a7d263          	bge	x15,x10,100068 <fac+0x48>
  100028:	ff010113          	addi	x2,x2,-16 # 1ffff0 <main+0xffad8>
  10002c:	00812423          	sw	x8,8(x2)
  100030:	00912223          	sw	x9,4(x2)
  100034:	00050413          	addi	x8,x10,0
  100038:	00112623          	sw	x1,12(x2)
  10003c:	00100513          	addi	x10,x0,1
  100040:	00100493          	addi	x9,x0,1
  100044:	00040593          	addi	x11,x8,0
  100048:	fff40413          	addi	x8,x8,-1
  10004c:	3f4000ef          	jal	x1,100440 <__mulsi3>
  100050:	fe941ae3          	bne	x8,x9,100044 <fac+0x24>
  100054:	00c12083          	lw	x1,12(x2)
  100058:	00812403          	lw	x8,8(x2)
  10005c:	00412483          	lw	x9,4(x2)
  100060:	01010113          	addi	x2,x2,16
  100064:	00008067          	jalr	x0,0(x1)
  100068:	00100513          	addi	x10,x0,1
  10006c:	00008067          	jalr	x0,0(x1)

00100070 <strlen>:
  100070:	00054783          	lbu	x15,0(x10)
  100074:	00050713          	addi	x14,x10,0
  100078:	00000513          	addi	x10,x0,0
  10007c:	00078c63          	beq	x15,x0,100094 <strlen+0x24>
  100080:	00150513          	addi	x10,x10,1
  100084:	00a707b3          	add	x15,x14,x10
  100088:	0007c783          	lbu	x15,0(x15)
  10008c:	fe079ae3          	bne	x15,x0,100080 <strlen+0x10>
  100090:	00008067          	jalr	x0,0(x1)
  100094:	00008067          	jalr	x0,0(x1)

00100098 <int_to_string>:
  100098:	fd010113          	addi	x2,x2,-48
  10009c:	03212023          	sw	x18,32(x2)
  1000a0:	01612823          	sw	x22,16(x2)
  1000a4:	01712623          	sw	x23,12(x2)
  1000a8:	02112623          	sw	x1,44(x2)
  1000ac:	02812423          	sw	x8,40(x2)
  1000b0:	02912223          	sw	x9,36(x2)
  1000b4:	01312e23          	sw	x19,28(x2)
  1000b8:	01412c23          	sw	x20,24(x2)
  1000bc:	01512a23          	sw	x21,20(x2)
  1000c0:	00050b13          	addi	x22,x10,0
  1000c4:	00058913          	addi	x18,x11,0
  1000c8:	00070b93          	addi	x23,x14,0
  1000cc:	0e054663          	blt	x10,x0,1001b8 <int_to_string+0x120>
  1000d0:	00000a93          	addi	x21,x0,0
  1000d4:	00d036b3          	sltu	x13,x0,x13
  1000d8:	00000413          	addi	x8,x0,0
  1000dc:	00900a13          	addi	x20,x0,9
  1000e0:	40d009b3          	sub	x19,x0,x13
  1000e4:	00c0006f          	jal	x0,1000f0 <int_to_string+0x58>
  1000e8:	00050b13          	addi	x22,x10,0
  1000ec:	00048413          	addi	x8,x9,0
  1000f0:	000b8593          	addi	x11,x23,0
  1000f4:	000b0513          	addi	x10,x22,0
  1000f8:	3bc000ef          	jal	x1,1004b4 <__umodsi3>
  1000fc:	00050693          	addi	x13,x10,0
  100100:	00140493          	addi	x9,x8,1
  100104:	00890733          	add	x14,x18,x8
  100108:	000b0513          	addi	x10,x22,0
  10010c:	000b8593          	addi	x11,x23,0
  100110:	0ff4f493          	andi	x9,x9,255
  100114:	03000793          	addi	x15,x0,48
  100118:	00da7663          	bgeu	x20,x13,100124 <int_to_string+0x8c>
  10011c:	fe09f793          	andi	x15,x19,-32
  100120:	06178793          	addi	x15,x15,97
  100124:	00d787b3          	add	x15,x15,x13
  100128:	00f70023          	sb	x15,0(x14)
  10012c:	340000ef          	jal	x1,10046c <__udivsi3>
  100130:	fb7b7ce3          	bgeu	x22,x23,1000e8 <int_to_string+0x50>
  100134:	00990533          	add	x10,x18,x9
  100138:	000a8e63          	beq	x21,x0,100154 <int_to_string+0xbc>
  10013c:	00240793          	addi	x15,x8,2
  100140:	0ff7f793          	andi	x15,x15,255
  100144:	02d00713          	addi	x14,x0,45
  100148:	00e50023          	sb	x14,0(x10)
  10014c:	00048413          	addi	x8,x9,0
  100150:	00f90533          	add	x10,x18,x15
  100154:	00000793          	addi	x15,x0,0
  100158:	02040863          	beq	x8,x0,100188 <int_to_string+0xf0>
  10015c:	00f90733          	add	x14,x18,x15
  100160:	008906b3          	add	x13,x18,x8
  100164:	00074583          	lbu	x11,0(x14)
  100168:	0006c603          	lbu	x12,0(x13)
  10016c:	00178793          	addi	x15,x15,1
  100170:	00b68023          	sb	x11,0(x13)
  100174:	fff40413          	addi	x8,x8,-1
  100178:	00c70023          	sb	x12,0(x14)
  10017c:	0ff7f793          	andi	x15,x15,255
  100180:	0ff47413          	andi	x8,x8,255
  100184:	fc87ece3          	bltu	x15,x8,10015c <int_to_string+0xc4>
  100188:	00050023          	sb	x0,0(x10)
  10018c:	02c12083          	lw	x1,44(x2)
  100190:	02812403          	lw	x8,40(x2)
  100194:	02412483          	lw	x9,36(x2)
  100198:	02012903          	lw	x18,32(x2)
  10019c:	01c12983          	lw	x19,28(x2)
  1001a0:	01812a03          	lw	x20,24(x2)
  1001a4:	01412a83          	lw	x21,20(x2)
  1001a8:	01012b03          	lw	x22,16(x2)
  1001ac:	00c12b83          	lw	x23,12(x2)
  1001b0:	03010113          	addi	x2,x2,48
  1001b4:	00008067          	jalr	x0,0(x1)
  1001b8:	f0060ce3          	beq	x12,x0,1000d0 <int_to_string+0x38>
  1001bc:	40a00b33          	sub	x22,x0,x10
  1001c0:	00100a93          	addi	x21,x0,1
  1001c4:	f11ff06f          	jal	x0,1000d4 <int_to_string+0x3c>

001001c8 <itoa>:
  1001c8:	00a00713          	addi	x14,x0,10
  1001cc:	00000693          	addi	x13,x0,0
  1001d0:	00100613          	addi	x12,x0,1
  1001d4:	ec5ff06f          	jal	x0,100098 <int_to_string>

001001d8 <putchar>:
  1001d8:	00200737          	lui	x14,0x200
  1001dc:	00072783          	lw	x15,0(x14) # 200000 <UART_TXDATA>
  1001e0:	0007a783          	lw	x15,0(x15)
  1001e4:	fe07cce3          	blt	x15,x0,1001dc <putchar+0x4>
  1001e8:	00072783          	lw	x15,0(x14)
  1001ec:	00072703          	lw	x14,0(x14)
  1001f0:	0007a783          	lw	x15,0(x15)
  1001f4:	f007f793          	andi	x15,x15,-256
  1001f8:	00a7e7b3          	or	x15,x15,x10
  1001fc:	00f72023          	sw	x15,0(x14)
  100200:	00008067          	jalr	x0,0(x1)

00100204 <print>:
  100204:	00054583          	lbu	x11,0(x10)
  100208:	00050693          	addi	x13,x10,0
  10020c:	00000513          	addi	x10,x0,0
  100210:	04058863          	beq	x11,x0,100260 <print+0x5c>
  100214:	00150513          	addi	x10,x10,1
  100218:	00a68633          	add	x12,x13,x10
  10021c:	00064783          	lbu	x15,0(x12)
  100220:	fe079ae3          	bne	x15,x0,100214 <print+0x10>
  100224:	00168693          	addi	x13,x13,1
  100228:	00200737          	lui	x14,0x200
  10022c:	00072783          	lw	x15,0(x14) # 200000 <UART_TXDATA>
  100230:	0007a783          	lw	x15,0(x15)
  100234:	fe07cce3          	blt	x15,x0,10022c <print+0x28>
  100238:	00072783          	lw	x15,0(x14)
  10023c:	00072803          	lw	x16,0(x14)
  100240:	0007a783          	lw	x15,0(x15)
  100244:	f007f793          	andi	x15,x15,-256
  100248:	00b7e7b3          	or	x15,x15,x11
  10024c:	00f82023          	sw	x15,0(x16)
  100250:	00c68863          	beq	x13,x12,100260 <print+0x5c>
  100254:	0006c583          	lbu	x11,0(x13)
  100258:	00168693          	addi	x13,x13,1
  10025c:	fd1ff06f          	jal	x0,10022c <print+0x28>
  100260:	00008067          	jalr	x0,0(x1)

00100264 <bprintf>:
  100264:	fa010113          	addi	x2,x2,-96
  100268:	04f12a23          	sw	x15,84(x2)
  10026c:	02112e23          	sw	x1,60(x2)
  100270:	02812c23          	sw	x8,56(x2)
  100274:	02912a23          	sw	x9,52(x2)
  100278:	03212823          	sw	x18,48(x2)
  10027c:	03312623          	sw	x19,44(x2)
  100280:	03412423          	sw	x20,40(x2)
  100284:	03512223          	sw	x21,36(x2)
  100288:	03612023          	sw	x22,32(x2)
  10028c:	01712e23          	sw	x23,28(x2)
  100290:	04c12423          	sw	x12,72(x2)
  100294:	04d12623          	sw	x13,76(x2)
  100298:	04e12823          	sw	x14,80(x2)
  10029c:	05012c23          	sw	x16,88(x2)
  1002a0:	05112e23          	sw	x17,92(x2)
  1002a4:	0005c703          	lbu	x14,0(x11)
  1002a8:	04810793          	addi	x15,x2,72
  1002ac:	00f12623          	sw	x15,12(x2)
  1002b0:	18070463          	beq	x14,x0,100438 <bprintf+0x1d4>
  1002b4:	001009b7          	lui	x19,0x100
  1002b8:	00058493          	addi	x9,x11,0
  1002bc:	00050913          	addi	x18,x10,0
  1002c0:	00000b13          	addi	x22,x0,0
  1002c4:	02500b93          	addi	x23,x0,37
  1002c8:	02000a13          	addi	x20,x0,32
  1002cc:	5c098993          	addi	x19,x19,1472 # 1005c0 <main+0xa8>
  1002d0:	00200437          	lui	x8,0x200
  1002d4:	00148a93          	addi	x21,x9,1
  1002d8:	03771463          	bne	x14,x23,100300 <bprintf+0x9c>
  1002dc:	0014c783          	lbu	x15,1(x9)
  1002e0:	07778263          	beq	x15,x23,100344 <bprintf+0xe0>
  1002e4:	fa878793          	addi	x15,x15,-88
  1002e8:	0ff7f793          	andi	x15,x15,255
  1002ec:	08fa6463          	bltu	x20,x15,100374 <bprintf+0x110>
  1002f0:	00279793          	slli	x15,x15,0x2
  1002f4:	013787b3          	add	x15,x15,x19
  1002f8:	0007a783          	lw	x15,0(x15)
  1002fc:	00078067          	jalr	x0,0(x15)
  100300:	00042783          	lw	x15,0(x8) # 200000 <UART_TXDATA>
  100304:	0007a783          	lw	x15,0(x15)
  100308:	fe07cce3          	blt	x15,x0,100300 <bprintf+0x9c>
  10030c:	00042783          	lw	x15,0(x8)
  100310:	00042603          	lw	x12,0(x8)
  100314:	000a8693          	addi	x13,x21,0
  100318:	0007a783          	lw	x15,0(x15)
  10031c:	00048a93          	addi	x21,x9,0
  100320:	001b0b13          	addi	x22,x22,1
  100324:	f007f793          	andi	x15,x15,-256
  100328:	00e7e733          	or	x14,x15,x14
  10032c:	00e62023          	sw	x14,0(x12)
  100330:	00068493          	addi	x9,x13,0
  100334:	001ac703          	lbu	x14,1(x21)
  100338:	f8071ee3          	bne	x14,x0,1002d4 <bprintf+0x70>
  10033c:	000b0513          	addi	x10,x22,0
  100340:	0380006f          	jal	x0,100378 <bprintf+0x114>
  100344:	00042783          	lw	x15,0(x8)
  100348:	0007a783          	lw	x15,0(x15)
  10034c:	fe07cce3          	blt	x15,x0,100344 <bprintf+0xe0>
  100350:	00042783          	lw	x15,0(x8)
  100354:	00042703          	lw	x14,0(x8)
  100358:	001b0b13          	addi	x22,x22,1
  10035c:	0007a783          	lw	x15,0(x15)
  100360:	00248493          	addi	x9,x9,2
  100364:	f007f793          	andi	x15,x15,-256
  100368:	0257e793          	ori	x15,x15,37
  10036c:	00f72023          	sw	x15,0(x14)
  100370:	fc5ff06f          	jal	x0,100334 <bprintf+0xd0>
  100374:	fff00513          	addi	x10,x0,-1
  100378:	03c12083          	lw	x1,60(x2)
  10037c:	03812403          	lw	x8,56(x2)
  100380:	03412483          	lw	x9,52(x2)
  100384:	03012903          	lw	x18,48(x2)
  100388:	02c12983          	lw	x19,44(x2)
  10038c:	02812a03          	lw	x20,40(x2)
  100390:	02412a83          	lw	x21,36(x2)
  100394:	02012b03          	lw	x22,32(x2)
  100398:	01c12b83          	lw	x23,28(x2)
  10039c:	06010113          	addi	x2,x2,96
  1003a0:	00008067          	jalr	x0,0(x1)
  1003a4:	00c12783          	lw	x15,12(x2)
  1003a8:	01000713          	addi	x14,x0,16
  1003ac:	00000693          	addi	x13,x0,0
  1003b0:	0007a503          	lw	x10,0(x15)
  1003b4:	00000613          	addi	x12,x0,0
  1003b8:	00478793          	addi	x15,x15,4
  1003bc:	00090593          	addi	x11,x18,0
  1003c0:	00f12623          	sw	x15,12(x2)
  1003c4:	cd5ff0ef          	jal	x1,100098 <int_to_string>
  1003c8:	00090513          	addi	x10,x18,0
  1003cc:	e39ff0ef          	jal	x1,100204 <print>
  1003d0:	00ab0b33          	add	x22,x22,x10
  1003d4:	00248493          	addi	x9,x9,2
  1003d8:	f5dff06f          	jal	x0,100334 <bprintf+0xd0>
  1003dc:	00c12783          	lw	x15,12(x2)
  1003e0:	00a00713          	addi	x14,x0,10
  1003e4:	00000693          	addi	x13,x0,0
  1003e8:	fc9ff06f          	jal	x0,1003b0 <bprintf+0x14c>
  1003ec:	00c12783          	lw	x15,12(x2)
  1003f0:	00248493          	addi	x9,x9,2
  1003f4:	0007a503          	lw	x10,0(x15)
  1003f8:	00478793          	addi	x15,x15,4
  1003fc:	00f12623          	sw	x15,12(x2)
  100400:	e05ff0ef          	jal	x1,100204 <print>
  100404:	00ab0b33          	add	x22,x22,x10
  100408:	f2dff06f          	jal	x0,100334 <bprintf+0xd0>
  10040c:	00c12783          	lw	x15,12(x2)
  100410:	00a00713          	addi	x14,x0,10
  100414:	00000693          	addi	x13,x0,0
  100418:	0007a503          	lw	x10,0(x15)
  10041c:	00100613          	addi	x12,x0,1
  100420:	00478793          	addi	x15,x15,4
  100424:	f99ff06f          	jal	x0,1003bc <bprintf+0x158>
  100428:	00c12783          	lw	x15,12(x2)
  10042c:	01000713          	addi	x14,x0,16
  100430:	00100693          	addi	x13,x0,1
  100434:	f7dff06f          	jal	x0,1003b0 <bprintf+0x14c>
  100438:	00000513          	addi	x10,x0,0
  10043c:	f3dff06f          	jal	x0,100378 <bprintf+0x114>

00100440 <__mulsi3>:
  100440:	00050613          	addi	x12,x10,0
  100444:	00000513          	addi	x10,x0,0
  100448:	0015f693          	andi	x13,x11,1
  10044c:	00068463          	beq	x13,x0,100454 <__mulsi3+0x14>
  100450:	00c50533          	add	x10,x10,x12
  100454:	0015d593          	srli	x11,x11,0x1
  100458:	00161613          	slli	x12,x12,0x1
  10045c:	fe0596e3          	bne	x11,x0,100448 <__mulsi3+0x8>
  100460:	00008067          	jalr	x0,0(x1)

00100464 <__divsi3>:
  100464:	06054063          	blt	x10,x0,1004c4 <__umodsi3+0x10>
  100468:	0605c663          	blt	x11,x0,1004d4 <__umodsi3+0x20>

0010046c <__udivsi3>:
  10046c:	00058613          	addi	x12,x11,0
  100470:	00050593          	addi	x11,x10,0
  100474:	fff00513          	addi	x10,x0,-1
  100478:	02060c63          	beq	x12,x0,1004b0 <__udivsi3+0x44>
  10047c:	00100693          	addi	x13,x0,1
  100480:	00b67a63          	bgeu	x12,x11,100494 <__udivsi3+0x28>
  100484:	00c05863          	bge	x0,x12,100494 <__udivsi3+0x28>
  100488:	00161613          	slli	x12,x12,0x1
  10048c:	00169693          	slli	x13,x13,0x1
  100490:	feb66ae3          	bltu	x12,x11,100484 <__udivsi3+0x18>
  100494:	00000513          	addi	x10,x0,0
  100498:	00c5e663          	bltu	x11,x12,1004a4 <__udivsi3+0x38>
  10049c:	40c585b3          	sub	x11,x11,x12
  1004a0:	00d56533          	or	x10,x10,x13
  1004a4:	0016d693          	srli	x13,x13,0x1
  1004a8:	00165613          	srli	x12,x12,0x1
  1004ac:	fe0696e3          	bne	x13,x0,100498 <__udivsi3+0x2c>
  1004b0:	00008067          	jalr	x0,0(x1)

001004b4 <__umodsi3>:
  1004b4:	00008293          	addi	x5,x1,0
  1004b8:	fb5ff0ef          	jal	x1,10046c <__udivsi3>
  1004bc:	00058513          	addi	x10,x11,0
  1004c0:	00028067          	jalr	x0,0(x5)
  1004c4:	40a00533          	sub	x10,x0,x10
  1004c8:	00b04863          	blt	x0,x11,1004d8 <__umodsi3+0x24>
  1004cc:	40b005b3          	sub	x11,x0,x11
  1004d0:	f9dff06f          	jal	x0,10046c <__udivsi3>
  1004d4:	40b005b3          	sub	x11,x0,x11
  1004d8:	00008293          	addi	x5,x1,0
  1004dc:	f91ff0ef          	jal	x1,10046c <__udivsi3>
  1004e0:	40a00533          	sub	x10,x0,x10
  1004e4:	00028067          	jalr	x0,0(x5)

001004e8 <__modsi3>:
  1004e8:	00008293          	addi	x5,x1,0
  1004ec:	0005ca63          	blt	x11,x0,100500 <__modsi3+0x18>
  1004f0:	00054c63          	blt	x10,x0,100508 <__modsi3+0x20>
  1004f4:	f79ff0ef          	jal	x1,10046c <__udivsi3>
  1004f8:	00058513          	addi	x10,x11,0
  1004fc:	00028067          	jalr	x0,0(x5)
  100500:	40b005b3          	sub	x11,x0,x11
  100504:	fe0558e3          	bge	x10,x0,1004f4 <__modsi3+0xc>
  100508:	40a00533          	sub	x10,x0,x10
  10050c:	f61ff0ef          	jal	x1,10046c <__udivsi3>
  100510:	40b00533          	sub	x10,x0,x11
  100514:	00028067          	jalr	x0,0(x5)

00100518 <main>:
  100518:	fd010113          	addi	x2,x2,-48
  10051c:	02912223          	sw	x9,36(x2)
  100520:	03212023          	sw	x18,32(x2)
  100524:	01312e23          	sw	x19,28(x2)
  100528:	01412c23          	sw	x20,24(x2)
  10052c:	02112623          	sw	x1,44(x2)
  100530:	02812423          	sw	x8,40(x2)
  100534:	00000913          	addi	x18,x0,0
  100538:	00100513          	addi	x10,x0,1
  10053c:	00100a37          	lui	x20,0x100
  100540:	00a00993          	addi	x19,x0,10
  100544:	00100493          	addi	x9,x0,1
  100548:	00090613          	addi	x12,x18,0
  10054c:	00050693          	addi	x13,x10,0
  100550:	00190913          	addi	x18,x18,1
  100554:	644a0593          	addi	x11,x20,1604 # 100644 <main+0x12c>
  100558:	00410513          	addi	x10,x2,4
  10055c:	d09ff0ef          	jal	x1,100264 <bprintf>
  100560:	03390e63          	beq	x18,x19,10059c <main+0x84>
  100564:	00090413          	addi	x8,x18,0
  100568:	00100513          	addi	x10,x0,1
  10056c:	fc990ee3          	beq	x18,x9,100548 <main+0x30>
  100570:	00040593          	addi	x11,x8,0
  100574:	fff40413          	addi	x8,x8,-1
  100578:	ec9ff0ef          	jal	x1,100440 <__mulsi3>
  10057c:	fe941ae3          	bne	x8,x9,100570 <main+0x58>
  100580:	00090613          	addi	x12,x18,0
  100584:	00050693          	addi	x13,x10,0
  100588:	00190913          	addi	x18,x18,1
  10058c:	644a0593          	addi	x11,x20,1604
  100590:	00410513          	addi	x10,x2,4
  100594:	cd1ff0ef          	jal	x1,100264 <bprintf>
  100598:	fd3916e3          	bne	x18,x19,100564 <main+0x4c>
  10059c:	02c12083          	lw	x1,44(x2)
  1005a0:	02812403          	lw	x8,40(x2)
  1005a4:	02412483          	lw	x9,36(x2)
  1005a8:	02012903          	lw	x18,32(x2)
  1005ac:	01c12983          	lw	x19,28(x2)
  1005b0:	01812a03          	lw	x20,24(x2)
  1005b4:	00000513          	addi	x10,x0,0
  1005b8:	03010113          	addi	x2,x2,48
  1005bc:	00008067          	jalr	x0,0(x1)
