
queens.elf:     file format elf32-littleriscv


Disassembly of section .text:

00100000 <_start>:
  100000:	00200137          	lui	x2,0x200
  100004:	160000ef          	jal	x1,100164 <main>
  100008:	00000013          	addi	x0,x0,0
  10000c:	00000013          	addi	x0,x0,0
  100010:	00000013          	addi	x0,x0,0
  100014:	00000013          	addi	x0,x0,0
  100018:	00000013          	addi	x0,x0,0

0010001c <halt>:
  10001c:	00000063          	beq	x0,x0,10001c <halt>

00100020 <queen>:
  100020:	fc010113          	addi	x2,x2,-64 # 1fffc0 <__modsi3+0xffb28>
  100024:	02112e23          	sw	x1,60(x2)
  100028:	02812c23          	sw	x8,56(x2)
  10002c:	04010413          	addi	x8,x2,64
  100030:	fca42e23          	sw	x10,-36(x8)
  100034:	fcb42c23          	sw	x11,-40(x8)
  100038:	fcc42a23          	sw	x12,-44(x8)
  10003c:	fcd42823          	sw	x13,-48(x8)
  100040:	fce42623          	sw	x14,-52(x8)
  100044:	fdc42783          	lw	x15,-36(x8)
  100048:	00079663          	bne	x15,x0,100054 <queen+0x34>
  10004c:	00100793          	addi	x15,x0,1
  100050:	0bc0006f          	jal	x0,10010c <queen+0xec>
  100054:	fe042623          	sw	x0,-20(x8)
  100058:	fd842703          	lw	x14,-40(x8)
  10005c:	fd442783          	lw	x15,-44(x8)
  100060:	00f767b3          	or	x15,x14,x15
  100064:	fd042703          	lw	x14,-48(x8)
  100068:	00f767b3          	or	x15,x14,x15
  10006c:	fef42223          	sw	x15,-28(x8)
  100070:	fe042423          	sw	x0,-24(x8)
  100074:	0880006f          	jal	x0,1000fc <queen+0xdc>
  100078:	fe842783          	lw	x15,-24(x8)
  10007c:	00100713          	addi	x14,x0,1
  100080:	00f717b3          	sll	x15,x14,x15
  100084:	fef42023          	sw	x15,-32(x8)
  100088:	fe442703          	lw	x14,-28(x8)
  10008c:	fe042783          	lw	x15,-32(x8)
  100090:	00f777b3          	and	x15,x14,x15
  100094:	04079c63          	bne	x15,x0,1000ec <queen+0xcc>
  100098:	fdc42783          	lw	x15,-36(x8)
  10009c:	fff78513          	addi	x10,x15,-1
  1000a0:	fd842703          	lw	x14,-40(x8)
  1000a4:	fe042783          	lw	x15,-32(x8)
  1000a8:	00f767b3          	or	x15,x14,x15
  1000ac:	00179593          	slli	x11,x15,0x1
  1000b0:	fd442703          	lw	x14,-44(x8)
  1000b4:	fe042783          	lw	x15,-32(x8)
  1000b8:	00f767b3          	or	x15,x14,x15
  1000bc:	0017d613          	srli	x12,x15,0x1
  1000c0:	fd042703          	lw	x14,-48(x8)
  1000c4:	fe042783          	lw	x15,-32(x8)
  1000c8:	00f767b3          	or	x15,x14,x15
  1000cc:	fcc42703          	lw	x14,-52(x8)
  1000d0:	00078693          	addi	x13,x15,0
  1000d4:	f4dff0ef          	jal	x1,100020 <queen>
  1000d8:	00050713          	addi	x14,x10,0
  1000dc:	fec42783          	lw	x15,-20(x8)
  1000e0:	00e787b3          	add	x15,x15,x14
  1000e4:	fef42623          	sw	x15,-20(x8)
  1000e8:	0080006f          	jal	x0,1000f0 <queen+0xd0>
  1000ec:	00000013          	addi	x0,x0,0
  1000f0:	fe842783          	lw	x15,-24(x8)
  1000f4:	00178793          	addi	x15,x15,1
  1000f8:	fef42423          	sw	x15,-24(x8)
  1000fc:	fcc42783          	lw	x15,-52(x8)
  100100:	fe842703          	lw	x14,-24(x8)
  100104:	f6f76ae3          	bltu	x14,x15,100078 <queen+0x58>
  100108:	fec42783          	lw	x15,-20(x8)
  10010c:	00078513          	addi	x10,x15,0
  100110:	03c12083          	lw	x1,60(x2)
  100114:	03812403          	lw	x8,56(x2)
  100118:	04010113          	addi	x2,x2,64
  10011c:	00008067          	jalr	x0,0(x1)

00100120 <nqueen>:
  100120:	fe010113          	addi	x2,x2,-32
  100124:	00112e23          	sw	x1,28(x2)
  100128:	00812c23          	sw	x8,24(x2)
  10012c:	02010413          	addi	x8,x2,32
  100130:	fea42623          	sw	x10,-20(x8)
  100134:	fec42703          	lw	x14,-20(x8)
  100138:	00000693          	addi	x13,x0,0
  10013c:	00000613          	addi	x12,x0,0
  100140:	00000593          	addi	x11,x0,0
  100144:	fec42503          	lw	x10,-20(x8)
  100148:	ed9ff0ef          	jal	x1,100020 <queen>
  10014c:	00050793          	addi	x15,x10,0
  100150:	00078513          	addi	x10,x15,0
  100154:	01c12083          	lw	x1,28(x2)
  100158:	01812403          	lw	x8,24(x2)
  10015c:	02010113          	addi	x2,x2,32
  100160:	00008067          	jalr	x0,0(x1)

00100164 <main>:
  100164:	fe010113          	addi	x2,x2,-32
  100168:	00112e23          	sw	x1,28(x2)
  10016c:	00812c23          	sw	x8,24(x2)
  100170:	02010413          	addi	x8,x2,32
  100174:	00800513          	addi	x10,x0,8
  100178:	fa9ff0ef          	jal	x1,100120 <nqueen>
  10017c:	fea42623          	sw	x10,-20(x8)
  100180:	001007b7          	lui	x15,0x100
  100184:	4c878513          	addi	x10,x15,1224 # 1004c8 <__modsi3+0x30>
  100188:	1f8000ef          	jal	x1,100380 <print>
  10018c:	fe040793          	addi	x15,x8,-32
  100190:	00078593          	addi	x11,x15,0
  100194:	fec42503          	lw	x10,-20(x8)
  100198:	084000ef          	jal	x1,10021c <itoa>
  10019c:	fe040793          	addi	x15,x8,-32
  1001a0:	00078513          	addi	x10,x15,0
  1001a4:	1dc000ef          	jal	x1,100380 <print>
  1001a8:	001007b7          	lui	x15,0x100
  1001ac:	4d478513          	addi	x10,x15,1236 # 1004d4 <__modsi3+0x3c>
  1001b0:	1d0000ef          	jal	x1,100380 <print>
  1001b4:	00000793          	addi	x15,x0,0
  1001b8:	00078513          	addi	x10,x15,0
  1001bc:	01c12083          	lw	x1,28(x2)
  1001c0:	01812403          	lw	x8,24(x2)
  1001c4:	02010113          	addi	x2,x2,32
  1001c8:	00008067          	jalr	x0,0(x1)

001001cc <strlen>:
  1001cc:	fd010113          	addi	x2,x2,-48
  1001d0:	02812623          	sw	x8,44(x2)
  1001d4:	03010413          	addi	x8,x2,48
  1001d8:	fca42e23          	sw	x10,-36(x8)
  1001dc:	fe042623          	sw	x0,-20(x8)
  1001e0:	01c0006f          	jal	x0,1001fc <strlen+0x30>
  1001e4:	fdc42783          	lw	x15,-36(x8)
  1001e8:	00178793          	addi	x15,x15,1
  1001ec:	fcf42e23          	sw	x15,-36(x8)
  1001f0:	fec42783          	lw	x15,-20(x8)
  1001f4:	00178793          	addi	x15,x15,1
  1001f8:	fef42623          	sw	x15,-20(x8)
  1001fc:	fdc42783          	lw	x15,-36(x8)
  100200:	0007c783          	lbu	x15,0(x15)
  100204:	fe0790e3          	bne	x15,x0,1001e4 <strlen+0x18>
  100208:	fec42783          	lw	x15,-20(x8)
  10020c:	00078513          	addi	x10,x15,0
  100210:	02c12403          	lw	x8,44(x2)
  100214:	03010113          	addi	x2,x2,48
  100218:	00008067          	jalr	x0,0(x1)

0010021c <itoa>:
  10021c:	fd010113          	addi	x2,x2,-48
  100220:	02112623          	sw	x1,44(x2)
  100224:	02812423          	sw	x8,40(x2)
  100228:	03010413          	addi	x8,x2,48
  10022c:	fca42e23          	sw	x10,-36(x8)
  100230:	fcb42c23          	sw	x11,-40(x8)
  100234:	fe0407a3          	sb	x0,-17(x8)
  100238:	fe040723          	sb	x0,-18(x8)
  10023c:	fdc42783          	lw	x15,-36(x8)
  100240:	0007dc63          	bge	x15,x0,100258 <itoa+0x3c>
  100244:	fdc42783          	lw	x15,-36(x8)
  100248:	40f007b3          	sub	x15,x0,x15
  10024c:	fcf42e23          	sw	x15,-36(x8)
  100250:	00100793          	addi	x15,x0,1
  100254:	fef407a3          	sb	x15,-17(x8)
  100258:	fdc42783          	lw	x15,-36(x8)
  10025c:	00a00593          	addi	x11,x0,10
  100260:	00078513          	addi	x10,x15,0
  100264:	234000ef          	jal	x1,100498 <__modsi3>
  100268:	00050793          	addi	x15,x10,0
  10026c:	0ff7f713          	andi	x14,x15,255
  100270:	fee44783          	lbu	x15,-18(x8)
  100274:	00178693          	addi	x13,x15,1
  100278:	fed40723          	sb	x13,-18(x8)
  10027c:	00078693          	addi	x13,x15,0
  100280:	fd842783          	lw	x15,-40(x8)
  100284:	00d787b3          	add	x15,x15,x13
  100288:	03070713          	addi	x14,x14,48
  10028c:	0ff77713          	andi	x14,x14,255
  100290:	00e78023          	sb	x14,0(x15)
  100294:	fdc42783          	lw	x15,-36(x8)
  100298:	00a00593          	addi	x11,x0,10
  10029c:	00078513          	addi	x10,x15,0
  1002a0:	174000ef          	jal	x1,100414 <__divsi3>
  1002a4:	00050793          	addi	x15,x10,0
  1002a8:	fcf42e23          	sw	x15,-36(x8)
  1002ac:	fdc42783          	lw	x15,-36(x8)
  1002b0:	faf044e3          	blt	x0,x15,100258 <itoa+0x3c>
  1002b4:	fef44783          	lbu	x15,-17(x8)
  1002b8:	02078263          	beq	x15,x0,1002dc <itoa+0xc0>
  1002bc:	fee44783          	lbu	x15,-18(x8)
  1002c0:	00178713          	addi	x14,x15,1
  1002c4:	fee40723          	sb	x14,-18(x8)
  1002c8:	00078713          	addi	x14,x15,0
  1002cc:	fd842783          	lw	x15,-40(x8)
  1002d0:	00e787b3          	add	x15,x15,x14
  1002d4:	02d00713          	addi	x14,x0,45
  1002d8:	00e78023          	sb	x14,0(x15)
  1002dc:	fe0406a3          	sb	x0,-19(x8)
  1002e0:	fee44783          	lbu	x15,-18(x8)
  1002e4:	fff78793          	addi	x15,x15,-1
  1002e8:	fef40623          	sb	x15,-20(x8)
  1002ec:	0640006f          	jal	x0,100350 <itoa+0x134>
  1002f0:	fec44783          	lbu	x15,-20(x8)
  1002f4:	fd842703          	lw	x14,-40(x8)
  1002f8:	00f707b3          	add	x15,x14,x15
  1002fc:	0007c783          	lbu	x15,0(x15)
  100300:	fef405a3          	sb	x15,-21(x8)
  100304:	fed44783          	lbu	x15,-19(x8)
  100308:	fd842703          	lw	x14,-40(x8)
  10030c:	00f70733          	add	x14,x14,x15
  100310:	fec44783          	lbu	x15,-20(x8)
  100314:	fd842683          	lw	x13,-40(x8)
  100318:	00f687b3          	add	x15,x13,x15
  10031c:	00074703          	lbu	x14,0(x14)
  100320:	00e78023          	sb	x14,0(x15)
  100324:	fed44783          	lbu	x15,-19(x8)
  100328:	fd842703          	lw	x14,-40(x8)
  10032c:	00f707b3          	add	x15,x14,x15
  100330:	feb44703          	lbu	x14,-21(x8)
  100334:	00e78023          	sb	x14,0(x15)
  100338:	fed44783          	lbu	x15,-19(x8)
  10033c:	00178793          	addi	x15,x15,1
  100340:	fef406a3          	sb	x15,-19(x8)
  100344:	fec44783          	lbu	x15,-20(x8)
  100348:	fff78793          	addi	x15,x15,-1
  10034c:	fef40623          	sb	x15,-20(x8)
  100350:	fed44703          	lbu	x14,-19(x8)
  100354:	fee44783          	lbu	x15,-18(x8)
  100358:	f8f76ce3          	bltu	x14,x15,1002f0 <itoa+0xd4>
  10035c:	fee44783          	lbu	x15,-18(x8)
  100360:	fd842703          	lw	x14,-40(x8)
  100364:	00f707b3          	add	x15,x14,x15
  100368:	00078023          	sb	x0,0(x15)
  10036c:	00000013          	addi	x0,x0,0
  100370:	02c12083          	lw	x1,44(x2)
  100374:	02812403          	lw	x8,40(x2)
  100378:	03010113          	addi	x2,x2,48
  10037c:	00008067          	jalr	x0,0(x1)

00100380 <print>:
  100380:	fd010113          	addi	x2,x2,-48
  100384:	02112623          	sw	x1,44(x2)
  100388:	02812423          	sw	x8,40(x2)
  10038c:	03010413          	addi	x8,x2,48
  100390:	fca42e23          	sw	x10,-36(x8)
  100394:	fdc42503          	lw	x10,-36(x8)
  100398:	e35ff0ef          	jal	x1,1001cc <strlen>
  10039c:	fea42423          	sw	x10,-24(x8)
  1003a0:	fe042623          	sw	x0,-20(x8)
  1003a4:	04c0006f          	jal	x0,1003f0 <print+0x70>
  1003a8:	00000013          	addi	x0,x0,0
  1003ac:	000017b7          	lui	x15,0x1
  1003b0:	0007a783          	lw	x15,0(x15) # 1000 <_start-0xff000>
  1003b4:	fe07cce3          	blt	x15,x0,1003ac <print+0x2c>
  1003b8:	000017b7          	lui	x15,0x1
  1003bc:	0007a783          	lw	x15,0(x15) # 1000 <_start-0xff000>
  1003c0:	f007f713          	andi	x14,x15,-256
  1003c4:	fdc42683          	lw	x13,-36(x8)
  1003c8:	fec42783          	lw	x15,-20(x8)
  1003cc:	00f687b3          	add	x15,x13,x15
  1003d0:	0007c783          	lbu	x15,0(x15)
  1003d4:	00078693          	addi	x13,x15,0
  1003d8:	000017b7          	lui	x15,0x1
  1003dc:	00d76733          	or	x14,x14,x13
  1003e0:	00e7a023          	sw	x14,0(x15) # 1000 <_start-0xff000>
  1003e4:	fec42783          	lw	x15,-20(x8)
  1003e8:	00178793          	addi	x15,x15,1
  1003ec:	fef42623          	sw	x15,-20(x8)
  1003f0:	fec42703          	lw	x14,-20(x8)
  1003f4:	fe842783          	lw	x15,-24(x8)
  1003f8:	faf768e3          	bltu	x14,x15,1003a8 <print+0x28>
  1003fc:	00000013          	addi	x0,x0,0
  100400:	00000013          	addi	x0,x0,0
  100404:	02c12083          	lw	x1,44(x2)
  100408:	02812403          	lw	x8,40(x2)
  10040c:	03010113          	addi	x2,x2,48
  100410:	00008067          	jalr	x0,0(x1)

00100414 <__divsi3>:
  100414:	06054063          	blt	x10,x0,100474 <__umodsi3+0x10>
  100418:	0605c663          	blt	x11,x0,100484 <__umodsi3+0x20>

0010041c <__udivsi3>:
  10041c:	00058613          	addi	x12,x11,0
  100420:	00050593          	addi	x11,x10,0
  100424:	fff00513          	addi	x10,x0,-1
  100428:	02060c63          	beq	x12,x0,100460 <__udivsi3+0x44>
  10042c:	00100693          	addi	x13,x0,1
  100430:	00b67a63          	bgeu	x12,x11,100444 <__udivsi3+0x28>
  100434:	00c05863          	bge	x0,x12,100444 <__udivsi3+0x28>
  100438:	00161613          	slli	x12,x12,0x1
  10043c:	00169693          	slli	x13,x13,0x1
  100440:	feb66ae3          	bltu	x12,x11,100434 <__udivsi3+0x18>
  100444:	00000513          	addi	x10,x0,0
  100448:	00c5e663          	bltu	x11,x12,100454 <__udivsi3+0x38>
  10044c:	40c585b3          	sub	x11,x11,x12
  100450:	00d56533          	or	x10,x10,x13
  100454:	0016d693          	srli	x13,x13,0x1
  100458:	00165613          	srli	x12,x12,0x1
  10045c:	fe0696e3          	bne	x13,x0,100448 <__udivsi3+0x2c>
  100460:	00008067          	jalr	x0,0(x1)

00100464 <__umodsi3>:
  100464:	00008293          	addi	x5,x1,0
  100468:	fb5ff0ef          	jal	x1,10041c <__udivsi3>
  10046c:	00058513          	addi	x10,x11,0
  100470:	00028067          	jalr	x0,0(x5)
  100474:	40a00533          	sub	x10,x0,x10
  100478:	00b04863          	blt	x0,x11,100488 <__umodsi3+0x24>
  10047c:	40b005b3          	sub	x11,x0,x11
  100480:	f9dff06f          	jal	x0,10041c <__udivsi3>
  100484:	40b005b3          	sub	x11,x0,x11
  100488:	00008293          	addi	x5,x1,0
  10048c:	f91ff0ef          	jal	x1,10041c <__udivsi3>
  100490:	40a00533          	sub	x10,x0,x10
  100494:	00028067          	jalr	x0,0(x5)

00100498 <__modsi3>:
  100498:	00008293          	addi	x5,x1,0
  10049c:	0005ca63          	blt	x11,x0,1004b0 <__modsi3+0x18>
  1004a0:	00054c63          	blt	x10,x0,1004b8 <__modsi3+0x20>
  1004a4:	f79ff0ef          	jal	x1,10041c <__udivsi3>
  1004a8:	00058513          	addi	x10,x11,0
  1004ac:	00028067          	jalr	x0,0(x5)
  1004b0:	40b005b3          	sub	x11,x0,x11
  1004b4:	fe0558e3          	bge	x10,x0,1004a4 <__modsi3+0xc>
  1004b8:	40a00533          	sub	x10,x0,x10
  1004bc:	f61ff0ef          	jal	x1,10041c <__udivsi3>
  1004c0:	40b00533          	sub	x10,x0,x11
  1004c4:	00028067          	jalr	x0,0(x5)
